(inir
NIR
p0
(dp1
S'exp_data'
p2
NsS'data_dir'
p3
S'/Users/jesse/Workspace/School/MastersThesis/Program/output//NIR_RestK-dream410-2011-12-16_23.28.13//NIR_RestK-5//data/'
p4
sS'name'
p5
S'NIR_RestK-5'
p6
sS'settings'
p7
(dp8
S'inferelator'
p9
(dp10
S'datafiles'
p11
S'data/waffles.txt data/testing.txt'
p12
ssS'genie3'
p13
(dp14
S'config'
p15
S'config/genie3_testing.cfg'
p16
ssS'cmonkey'
p17
(dp18
S'config'
p19
S'config/cmonkey_testing.cfg'
p20
ssS'tlclr'
p21
(dp22
S'config'
p23
S'config/tlclr_testing.cfg'
p24
ssS'global'
p25
(dp26
S'matlab_path'
p27
S'matlab'
p28
sS'medium2_network_goldnet_file'
p29
S'datasets/20Gene_Network2/Ecoli-20Genes-6Reg-3_goldstandard.tsv'
p30
sS'dream4100_network_knockdown_file'
p31
S'datasets/DREAM4_InSilico_Size100/insilico_size100_1/insilico_size100_1_knockdowns.tsv'
p32
sS'medium2_network_delta_t'
p33
I50
sS'large_network_knockdown_file'
p34
S'datasets/Large_Network/Ecoli-1_knockdowns.tsv'
p35
sS'dream410_network_delta_t'
p36
I50
sS'n_processors'
p37
I3
sS'large_network_timeseries_file'
p38
S'datasets/Large_Network/Ecoli-1_dream4_timeseries.tsv'
p39
sS'dream410_network_wildtype_file'
p40
S'datasets/DREAM4_InSilico_Size10/insilico_size10_1/insilico_size10_1_wildtype.tsv'
p41
sS'medium2_network_timeseries_file'
p42
S'datasets/20Gene_Network2/Ecoli-20Genes-6Reg-3_dream4_timeseries.tsv'
p43
sS'time_series_delta_t'
p44
I50
sS'small_network_wildtype_file'
p45
S'datasets/Small_Network/Ecoli-1_wildtype.tsv'
p46
sS'medium_network_goldnet_file'
p47
S'datasets/20Gene_Network/Ecoli-20Genes-6Reg-2_goldstandard.tsv'
p48
sS'medium_network_timeseries_file'
p49
S'datasets/20Gene_Network/Ecoli-20Genes-6Reg-2_dream4_timeseries.tsv'
p50
sS'dream410_network_goldnet_file'
p51
S'datasets/DREAM4_InSilico_Size10/insilico_size10_1/DREAM4_GoldStandard_InSilico_Size10_1.tsv'
p52
sS'medium_network_wildtype_file'
p53
S'datasets/20Gene_Network/Ecoli-20Genes-6Reg-2_wildtype.tsv'
p54
sS'medium2_network_multifactorial_file'
p55
S'datasets/20Gene_Network2/Ecoli-20Genes-6Reg-3_multifactorial.tsv'
p56
sS'dream4100_network_goldnet_file'
p57
S'datasets/DREAM4_InSilico_Size100/insilico_size100_1/DREAM4_GoldStandard_InSilico_Size100_1.tsv'
p58
sS'dream4100_network_knockout_file'
p59
S'datasets/DREAM4_InSilico_Size100/insilico_size100_1/insilico_size100_1_knockouts.tsv'
p60
sS'large_network_goldnet_file'
p61
S'datasets/Large_Network/Ecoli-1_goldstandard.tsv'
p62
sS'large_network_knockout_file'
p63
S'datasets/Large_Network/Ecoli-1_knockouts.tsv'
p64
sS'working_dir'
p65
S'/Users/jesse/Workspace/School/MastersThesis/Program/'
p66
sS'small_network_multifactorial_file'
p67
S'datasets/Small_Network/Ecoli-1_multifactorial.tsv'
p68
sS'output_dir'
p69
S'output//NIR_RestK-dream410-2011-12-16_23.28.13/'
p70
sS'medium2_network_knockdown_file'
p71
S'datasets/20Gene_Network2/Ecoli-20Genes-6Reg-3_knockdowns.tsv'
p72
sS'medium_network_multifactorial_file'
p73
S'datasets/20Gene_Network/Ecoli-20Genes-6Reg-2_multifactorial.tsv'
p74
sS'log_dir'
p75
S'output/logs/'
p76
sS'dream4100_network_delta_t'
p77
I50
sS'steady_state_files'
p78
S'550ath.ratios.fix'
p79
sS'small_network_goldnet_file'
p80
S'datasets/Small_Network/Ecoli-1_goldstandard.tsv'
p81
sS'tflist'
p82
S'ArabGeneTFNames.csv'
p83
sS'dream4100_network_wildtype_file'
p84
S'datasets/DREAM4_InSilico_Size100/insilico_size100_1/insilico_size100_1_wildtype.tsv'
p85
sS'use_cluster'
p86
S'False'
p87
sS'medium_network_delta_t'
p88
I50
sS'time_series_files'
p89
S'datasets/dream4_10/dream4_ts.tsv'
p90
sS'small_network_delta_t'
p91
I30
sS'small_network_timeseries_file'
p92
S'datasets/Small_Network/Ecoli-1_dream4_timeseries.tsv'
p93
sS'large_network_delta_t'
p94
I30
sS'medium2_network_wildtype_file'
p95
S'datasets/20Gene_Network2/Ecoli-20Genes-6Reg-3_wildtype.tsv'
p96
sS'dream410_network_knockdown_file'
p97
S'datasets/DREAM4_InSilico_Size10/insilico_size10_1/insilico_size10_1_knockdowns.tsv'
p98
sS'dream4100_network_timeseries_file'
p99
S'datasets/DREAM4_InSilico_Size100/insilico_size100_1/insilico_size100_1_timeseries.tsv'
p100
sS'dream410_network_timeseries_file'
p101
S'datasets/DREAM4_InSilico_Size10/insilico_size10_1/insilico_size10_1_timeseries.tsv'
p102
sS'template_dir'
p103
S'config/templates/'
p104
sS'medium_network_knockout_file'
p105
S'datasets/20Gene_Network/Ecoli-20Genes-6Reg-2_knockouts.tsv'
p106
sS'large_network_multifactorial_file'
p107
S'datasets/Large_Network/Ecoli-1_multifactorial.tsv'
p108
sS'dream4100_network_multifactorial_file'
p109
S'datasets/DREAM4_InSilico_Size100/insilico_size100_1/insilico_size100_1_multifactorial.tsv'
p110
sS'large_network_wildtype_file'
p111
S'datasets/Large_Network/Ecoli-1_wildtype.tsv'
p112
sS'experiment_name'
p113
S'NIR_RestK-dream410'
p114
sS'small_network_knockdown_file'
p115
S'datasets/Small_Network/Ecoli-1_knockdowns.tsv'
p116
sS'dream410_network_knockout_file'
p117
S'datasets/DREAM4_InSilico_Size10/insilico_size10_1/insilico_size10_1_knockouts.tsv'
p118
sS'dream410_network_multifactorial_file'
p119
S'datasets/DREAM4_InSilico_Size10/insilico_size10_1/insilico_size10_1_multifactorial.tsv'
p120
sS'small_network_knockout_file'
p121
S'datasets/Small_Network/Ecoli-1_knockouts.tsv'
p122
sS'medium2_network_knockout_file'
p123
S'datasets/20Gene_Network2/Ecoli-20Genes-6Reg-3_knockouts.tsv'
p124
sS'medium_network_knockdown_file'
p125
S'datasets/20Gene_Network/Ecoli-20Genes-6Reg-2_knockdowns.tsv'
p126
ssS'mcz'
p127
(dp128
S'config'
p129
S'config/mcz_testing.cfg'
p130
ssS'nir'
p131
(dp132
g3
g4
sg5
g6
sS'working_dir_config'
p133
S'/Users/jesse/Workspace/School/MastersThesis/Program/output//NIR_RestK-dream410-2011-12-16_23.28.13//NIR_RestK-5//nir_program/run_nir.m'
p134
sS'settings_file'
p135
S'/Users/jesse/Workspace/School/MastersThesis/Program/output//NIR_RestK-dream410-2011-12-16_23.28.13//NIR_RestK-5//nir_settings.m'
p136
sS'restk'
p137
I5
sS'output_dir'
p138
S'/Users/jesse/Workspace/School/MastersThesis/Program/output//NIR_RestK-dream410-2011-12-16_23.28.13//NIR_RestK-5/'
p139
sS'path'
p140
S'algorithms/nir/'
p141
sS'file_ext'
p142
S'm'
p143
sS'topd'
p144
I5
sS'config'
p145
S'config/nir_testing.cfg'
p146
sS'ratio_files'
p147
S'/Users/jesse/Workspace/School/MastersThesis/Program/output//NIR_RestK-dream410-2011-12-16_23.28.13//NIR_RestK-5//data//insilico_size10_1_knockouts.tsv'
p148
sS'log_dir'
p149
S'/Users/jesse/Workspace/School/MastersThesis/Program/output//NIR_RestK-dream410-2011-12-16_23.28.13//NIR_RestK-5//log/'
p150
ssS'banjo'
p151
(dp152
S'num_genes'
p153
I10
sS'config'
p154
S'config/banjo_testing.cfg'
p155
ssS'dfg4grn'
p156
(dp157
S'cluster_expname'
p158
S'testing'
p159
sS'tau'
p160
I10
sS'lambda_w'
p161
I2
sS'cluster_nodes'
p162
I1
sS'cluster_email'
p163
S'jml654@nyu.edu'
p164
sS'tau_range'
p165
(lp166
I1
aI3
asS'eta_z_range'
p167
(lp168
F0.0001
aF0.1
asS'eta_z'
p169
I3
sS'lambda_w_range'
p170
(lp171
F0.001
aF0.2
asS'cluster_priority'
p172
I1
sS'path'
p173
S'algorithms/dfg4grn/'
p174
sS'cluster_procs'
p175
I1
sS'config'
p176
S'config/dfg4grn_testing.cfg'
p177
sS'cluster_username'
p178
S'jml654'
p179
ssS'nirest'
p180
(dp181
S'ratio_files'
p182
S'datasets/dream4_10/dream4_ts.tsv'
p183
sS'config'
p184
S'config/nirest_testing.cfg'
p185
sssS'cmd'
p186
S'matlab -nodesktop -nodisplay -nosplash -r "addpath(genpath(\'./\'));try;run_nir, catch err, err ,end, exit"'
p187
sS'alg_name'
p188
S'nir'
p189
sS'network'
p190
(iNetwork
Network
p191
(dp192
S'binary'
p193
I00
sg190
(dp194
S'G7'
p195
(dp196
g195
F0.896255
sS'G6'
p197
F0.473044
sS'G5'
p198
F0.0
sS'G4'
p199
F0.35734
sS'G3'
p200
F0.0
sS'G2'
p201
F0.0
sS'G1'
p202
F0.140108
sS'G9'
p203
F0.0
sS'G8'
p204
F0.526617
sS'G10'
p205
F0.0
ssg197
(dp206
g195
F0.124076
sg197
F0.921665
sg198
F0.0
sg199
F0.477298
sg200
F0.0
sg201
F0.846034
sg202
F0.156785
sg203
F0.0
sg204
F0.0
sg205
F0.0
ssg198
(dp207
g195
F0.217482
sg197
F0.0
sg198
F0.537872
sg199
F0.0
sg200
F0.154542
sg201
F0.0
sg202
F0.112409
sg203
F0.0
sg204
F0.0
sg205
F0.203864
ssg199
(dp208
g195
F0.0
sg197
F0.0
sg198
F0.0
sg199
F0.875807
sg200
F0.605706
sg201
F0.0
sg202
F0.263262
sg203
F0.198508
sg204
F0.0
sg205
F0.345543
ssg200
(dp209
g195
F0.333
sg197
F0.0
sg198
F0.0
sg199
F0.429251
sg200
F1.061396
sg201
F0.0
sg202
F0.408088
sg203
F0.0
sg204
F0.0
sg205
F0.349233
ssg201
(dp210
g195
F0.0
sg197
F0.193667
sg198
F0.242165
sg199
F0.493598
sg200
F0.0
sg201
F1.100978
sg202
F0.0
sg203
F0.0
sg204
F0.0
sg205
F0.197061
ssg202
(dp211
g195
F0.0
sg197
F0.234945
sg198
F0.710693
sg199
F0.0
sg200
F0.0
sg201
F0.255514
sg202
F0.372576
sg203
F0.0
sg204
F0.16841
sg205
F0.0
ssg203
(dp212
g195
F0.0
sg197
F0.0
sg198
F0.259034
sg199
F0.351863
sg200
F0.0
sg201
F0.0
sg202
F0.457193
sg203
F0.933999
sg204
F0.297923
sg205
F0.0
ssg204
(dp213
g195
F0.0
sg197
F0.682754
sg198
F0.148741
sg199
F0.0
sg200
F0.0
sg201
F0.44407
sg202
F0.283425
sg203
F0.0
sg204
F0.690225
sg205
F0.0
ssg205
(dp214
g195
F0.214214
sg197
F0.0
sg198
F0.0
sg199
F0.144799
sg200
F0.330012
sg201
F0.0
sg202
F0.0
sg203
F0.734229
sg204
F0.0
sg205
F0.908379
sssS'cutoff'
p215
I0
sS'signed'
p216
I00
sS'original_network'
p217
(lp218
(lp219
S'0.372576'
p220
aS'-0.255514'
p221
aS'0.000000'
p222
aS'0.000000'
p223
aS'-0.710693'
p224
aS'-0.234945'
p225
aS'0.000000'
p226
aS'-0.168410'
p227
aS'0.000000'
p228
aS'0.000000'
p229
aa(lp230
S'0.000000'
p231
aS'1.100978'
p232
aS'0.000000'
p233
aS'-0.493598'
p234
aS'-0.242165'
p235
aS'0.193667'
p236
aS'0.000000'
p237
aS'0.000000'
p238
aS'0.000000'
p239
aS'-0.197061'
p240
aa(lp241
S'-0.408088'
p242
aS'0.000000'
p243
aS'1.061396'
p244
aS'0.429251'
p245
aS'0.000000'
p246
aS'0.000000'
p247
aS'-0.333000'
p248
aS'0.000000'
p249
aS'0.000000'
p250
aS'-0.349233'
p251
aa(lp252
S'-0.263262'
p253
aS'0.000000'
p254
aS'-0.605706'
p255
aS'0.875807'
p256
aS'0.000000'
p257
aS'0.000000'
p258
aS'0.000000'
p259
aS'0.000000'
p260
aS'0.198508'
p261
aS'-0.345543'
p262
aa(lp263
S'0.112409'
p264
aS'0.000000'
p265
aS'-0.154542'
p266
aS'0.000000'
p267
aS'0.537872'
p268
aS'0.000000'
p269
aS'-0.217482'
p270
aS'0.000000'
p271
aS'0.000000'
p272
aS'-0.203864'
p273
aa(lp274
S'-0.156785'
p275
aS'-0.846034'
p276
aS'0.000000'
p277
aS'-0.477298'
p278
aS'0.000000'
p279
aS'0.921665'
p280
aS'0.124076'
p281
aS'0.000000'
p282
aS'0.000000'
p283
aS'0.000000'
p284
aa(lp285
S'0.140108'
p286
aS'0.000000'
p287
aS'0.000000'
p288
aS'-0.357340'
p289
aS'0.000000'
p290
aS'-0.473044'
p291
aS'0.896255'
p292
aS'-0.526617'
p293
aS'0.000000'
p294
aS'0.000000'
p295
aa(lp296
S'-0.283425'
p297
aS'-0.444070'
p298
aS'0.000000'
p299
aS'0.000000'
p300
aS'-0.148741'
p301
aS'-0.682754'
p302
aS'0.000000'
p303
aS'0.690225'
p304
aS'0.000000'
p305
aS'0.000000'
p306
aa(lp307
S'-0.457193'
p308
aS'0.000000'
p309
aS'0.000000'
p310
aS'-0.351863'
p311
aS'-0.259034'
p312
aS'0.000000'
p313
aS'0.000000'
p314
aS'-0.297923'
p315
aS'0.933999'
p316
aS'0.000000'
p317
aa(lp318
S'0.000000'
p319
aS'0.000000'
p320
aS'-0.330012'
p321
aS'0.144799'
p322
aS'0.000000'
p323
aS'0.000000'
p324
aS'-0.214214'
p325
aS'0.000000'
p326
aS'-0.734229'
p327
aS'0.908379'
p328
aasS'thresh'
p329
I0
sS'gene_list'
p330
(lp331
g202
ag201
ag200
ag199
ag198
ag197
ag195
ag204
ag203
ag205
asbsg65
S'/Users/jesse/Workspace/School/MastersThesis/Program/output//NIR_RestK-dream410-2011-12-16_23.28.13//NIR_RestK-5//nir_program/'
p332
sg138
g139
sg330
g331
sS'cwd'
p333
g332
sS'data_storage'
p334
(iDataStore
MicroarrayData
p335
(dp336
S'experiments'
p337
(lp338
(iDataStore
Experiment
p339
(dp340
S'ratios'
p341
(dp342
g195
S'0.8300751'
p343
sg197
S'0.3751750'
p344
sg198
S'0.8043362'
p345
sg199
S'0.3623740'
p346
sg200
S'0.2643345'
p347
sg201
S'0.3726836'
p348
sg202
S'0.0000000'
p349
sg203
S'0.6211513'
p350
sg204
S'0.7745205'
p351
sg205
S'0.7196954'
p352
ssS'type'
p353
S'knockout'
p354
sS'tfs'
p355
(lp356
sg5
S'0'
p357
sS'file'
p358
g118
sba(iDataStore
Experiment
p359
(dp360
g341
(dp361
g195
S'0.5208251'
p362
sg197
S'0.3396784'
p363
sg198
S'0.1510230'
p364
sg199
S'0.6002870'
p365
sg200
S'0.3771581'
p366
sg201
S'0.0000000'
p367
sg202
S'0.7331094'
p368
sg203
S'0.7350115'
p369
sg204
S'0.6787224'
p370
sg205
S'0.7922641'
p371
ssg353
g354
sg355
g356
sg5
S'1'
p372
sg358
g118
sba(iDataStore
Experiment
p373
(dp374
g341
(dp375
g195
S'0.6641803'
p376
sg197
S'0.4025691'
p377
sg198
S'0.0791767'
p378
sg199
S'0.3730533'
p379
sg200
S'0.0000000'
p380
sg201
S'0.1391272'
p381
sg202
S'0.7070529'
p382
sg203
S'0.7220312'
p383
sg204
S'0.8045297'
p384
sg205
S'0.6658928'
p385
ssg353
g354
sg355
g356
sg5
S'2'
p386
sg358
g118
sba(iDataStore
Experiment
p387
(dp388
g341
(dp389
g195
S'0.1099868'
p390
sg197
S'0.2836348'
p391
sg198
S'0.1489169'
p392
sg199
S'0.0000000'
p393
sg200
S'0.6167796'
p394
sg201
S'0.1071007'
p395
sg202
S'0.8450825'
p396
sg203
S'0.5874284'
p397
sg204
S'0.6342242'
p398
sg205
S'0.7160394'
p399
ssg353
g354
sg355
g356
sg5
S'3'
p400
sg358
g118
sba(iDataStore
Experiment
p401
(dp402
g341
(dp403
g195
S'0.5416993'
p404
sg197
S'0.3271487'
p405
sg198
S'0.0000000'
p406
sg199
S'0.5616994'
p407
sg200
S'0.4261411'
p408
sg201
S'0.1364529'
p409
sg202
S'0.8780137'
p410
sg203
S'0.7343038'
p411
sg204
S'0.5681723'
p412
sg205
S'0.7933364'
p413
ssg353
g354
sg355
g356
sg5
S'4'
p414
sg358
g118
sba(iDataStore
Experiment
p415
(dp416
g341
(dp417
g195
S'0.4606635'
p418
sg197
S'0.0000000'
p419
sg198
S'0.0947163'
p420
sg199
S'0.6272800'
p421
sg200
S'0.4614097'
p422
sg201
S'0.3975987'
p423
sg202
S'0.6164494'
p424
sg203
S'0.7374282'
p425
sg204
S'0.5924707'
p426
sg205
S'0.7962721'
p427
ssg353
g354
sg355
g356
sg5
S'5'
p428
sg358
g118
sba(iDataStore
Experiment
p429
(dp430
g341
(dp431
g195
S'0.0000000'
p432
sg197
S'0.3024242'
p433
sg198
S'0.0843933'
p434
sg199
S'0.2712395'
p435
sg200
S'0.3150332'
p436
sg201
S'0.0855962'
p437
sg202
S'0.6906661'
p438
sg203
S'0.8041040'
p439
sg204
S'0.7503346'
p440
sg205
S'0.6355293'
p441
ssg353
g354
sg355
g356
sg5
S'6'
p442
sg358
g118
sba(iDataStore
Experiment
p443
(dp444
g341
(dp445
g195
S'0.5464286'
p446
sg197
S'0.6322827'
p447
sg198
S'0.1194226'
p448
sg199
S'0.6637898'
p449
sg200
S'0.3753798'
p450
sg201
S'0.2786197'
p451
sg202
S'0.7996258'
p452
sg203
S'0.7722994'
p453
sg204
S'0.0000000'
p454
sg205
S'0.6917469'
p455
ssg353
g354
sg355
g356
sg5
S'7'
p456
sg358
g118
sba(iDataStore
Experiment
p457
(dp458
g341
(dp459
g195
S'0.6929004'
p460
sg197
S'0.2983418'
p461
sg198
S'0.1357722'
p462
sg199
S'0.3983948'
p463
sg200
S'0.2351013'
p464
sg201
S'0.1223010'
p465
sg202
S'0.7928387'
p466
sg203
S'0.0000000'
p467
sg204
S'0.7674369'
p468
sg205
S'0.0362879'
p469
ssg353
g354
sg355
g356
sg5
S'8'
p470
sg358
g118
sba(iDataStore
Experiment
p471
(dp472
g341
(dp473
g195
S'0.6154742'
p474
sg197
S'0.3397100'
p475
sg198
S'0.1241278'
p476
sg199
S'0.3636434'
p477
sg200
S'0.4215866'
p478
sg201
S'0.1399857'
p479
sg202
S'0.7939821'
p480
sg203
S'0.7247379'
p481
sg204
S'0.6776090'
p482
sg205
S'0.0000000'
p483
ssg353
g354
sg355
g356
sg5
S'9'
p484
sg358
g118
sbasg353
g354
sS'timeseries_num'
p485
Nsg330
g331
sS'input_files'
p486
(lp487
S'insilico_size10_1_knockouts.tsv'
p488
asbsg149
g150
sb.