(itlclr
TLCLR
p0
(dp1
S'exp_data'
p2
NsS'cmd'
p3
S'Rscript r_scripts/main.R'
p4
sS'data_dir'
p5
S'/Users/jesse/Workspace/School/MastersThesis/Program/output//TLCLR-DFG4grn-dream410-2011-12-15_01.35.30//TLCLR_All_Data//data/'
p6
sS'name'
p7
S'TLCLR_All_Data'
p8
sS'ko_storage'
p9
(iDataStore
MicroarrayData
p10
(dp11
S'experiments'
p12
(lp13
(iDataStore
Experiment
p14
(dp15
S'ratios'
p16
(dp17
S'G7'
p18
S'0.8300751'
p19
sS'G6'
p20
S'0.3751750'
p21
sS'G5'
p22
S'0.8043362'
p23
sS'G4'
p24
S'0.3623740'
p25
sS'G3'
p26
S'0.2643345'
p27
sS'G2'
p28
S'0.3726836'
p29
sS'G1'
p30
S'0.0000000'
p31
sS'G9'
p32
S'0.6211513'
p33
sS'G8'
p34
S'0.7745205'
p35
sS'G10'
p36
S'0.7196954'
p37
ssS'type'
p38
S'knockout'
p39
sS'tfs'
p40
(lp41
sg7
S'0'
p42
sS'file'
p43
S'datasets/DREAM4_InSilico_Size10/insilico_size10_1/inSilico_size10_1_knockouts.tsv'
p44
sba(iDataStore
Experiment
p45
(dp46
g16
(dp47
g18
S'0.5208251'
p48
sg20
S'0.3396784'
p49
sg22
S'0.1510230'
p50
sg24
S'0.6002870'
p51
sg26
S'0.3771581'
p52
sg28
S'0.0000000'
p53
sg30
S'0.7331094'
p54
sg32
S'0.7350115'
p55
sg34
S'0.6787224'
p56
sg36
S'0.7922641'
p57
ssg38
g39
sg40
g41
sg7
S'1'
p58
sg43
g44
sba(iDataStore
Experiment
p59
(dp60
g16
(dp61
g18
S'0.6641803'
p62
sg20
S'0.4025691'
p63
sg22
S'0.0791767'
p64
sg24
S'0.3730533'
p65
sg26
S'0.0000000'
p66
sg28
S'0.1391272'
p67
sg30
S'0.7070529'
p68
sg32
S'0.7220312'
p69
sg34
S'0.8045297'
p70
sg36
S'0.6658928'
p71
ssg38
g39
sg40
g41
sg7
S'2'
p72
sg43
g44
sba(iDataStore
Experiment
p73
(dp74
g16
(dp75
g18
S'0.1099868'
p76
sg20
S'0.2836348'
p77
sg22
S'0.1489169'
p78
sg24
S'0.0000000'
p79
sg26
S'0.6167796'
p80
sg28
S'0.1071007'
p81
sg30
S'0.8450825'
p82
sg32
S'0.5874284'
p83
sg34
S'0.6342242'
p84
sg36
S'0.7160394'
p85
ssg38
g39
sg40
g41
sg7
S'3'
p86
sg43
g44
sba(iDataStore
Experiment
p87
(dp88
g16
(dp89
g18
S'0.5416993'
p90
sg20
S'0.3271487'
p91
sg22
S'0.0000000'
p92
sg24
S'0.5616994'
p93
sg26
S'0.4261411'
p94
sg28
S'0.1364529'
p95
sg30
S'0.8780137'
p96
sg32
S'0.7343038'
p97
sg34
S'0.5681723'
p98
sg36
S'0.7933364'
p99
ssg38
g39
sg40
g41
sg7
S'4'
p100
sg43
g44
sba(iDataStore
Experiment
p101
(dp102
g16
(dp103
g18
S'0.4606635'
p104
sg20
S'0.0000000'
p105
sg22
S'0.0947163'
p106
sg24
S'0.6272800'
p107
sg26
S'0.4614097'
p108
sg28
S'0.3975987'
p109
sg30
S'0.6164494'
p110
sg32
S'0.7374282'
p111
sg34
S'0.5924707'
p112
sg36
S'0.7962721'
p113
ssg38
g39
sg40
g41
sg7
S'5'
p114
sg43
g44
sba(iDataStore
Experiment
p115
(dp116
g16
(dp117
g18
S'0.0000000'
p118
sg20
S'0.3024242'
p119
sg22
S'0.0843933'
p120
sg24
S'0.2712395'
p121
sg26
S'0.3150332'
p122
sg28
S'0.0855962'
p123
sg30
S'0.6906661'
p124
sg32
S'0.8041040'
p125
sg34
S'0.7503346'
p126
sg36
S'0.6355293'
p127
ssg38
g39
sg40
g41
sg7
S'6'
p128
sg43
g44
sba(iDataStore
Experiment
p129
(dp130
g16
(dp131
g18
S'0.5464286'
p132
sg20
S'0.6322827'
p133
sg22
S'0.1194226'
p134
sg24
S'0.6637898'
p135
sg26
S'0.3753798'
p136
sg28
S'0.2786197'
p137
sg30
S'0.7996258'
p138
sg32
S'0.7722994'
p139
sg34
S'0.0000000'
p140
sg36
S'0.6917469'
p141
ssg38
g39
sg40
g41
sg7
S'7'
p142
sg43
g44
sba(iDataStore
Experiment
p143
(dp144
g16
(dp145
g18
S'0.6929004'
p146
sg20
S'0.2983418'
p147
sg22
S'0.1357722'
p148
sg24
S'0.3983948'
p149
sg26
S'0.2351013'
p150
sg28
S'0.1223010'
p151
sg30
S'0.7928387'
p152
sg32
S'0.0000000'
p153
sg34
S'0.7674369'
p154
sg36
S'0.0362879'
p155
ssg38
g39
sg40
g41
sg7
S'8'
p156
sg43
g44
sba(iDataStore
Experiment
p157
(dp158
g16
(dp159
g18
S'0.6154742'
p160
sg20
S'0.3397100'
p161
sg22
S'0.1241278'
p162
sg24
S'0.3636434'
p163
sg26
S'0.4215866'
p164
sg28
S'0.1399857'
p165
sg30
S'0.7939821'
p166
sg32
S'0.7247379'
p167
sg34
S'0.6776090'
p168
sg36
S'0.0000000'
p169
ssg38
g39
sg40
g41
sg7
S'9'
p170
sg43
g44
sbasg38
g39
sS'timeseries_num'
p171
NsS'gene_list'
p172
(lp173
g30
ag28
ag26
ag24
ag22
ag20
ag18
ag34
ag32
ag36
asS'input_files'
p174
(lp175
S'inSilico_size10_1_knockouts.tsv'
p176
asbsS'settings'
p177
(dp178
S'inferelator'
p179
(dp180
S'datafiles'
p181
S'data/waffles.txt data/testing.txt'
p182
ssS'genie3'
p183
(dp184
S'config'
p185
S'config/genie3_testing.cfg'
p186
ssS'cmonkey'
p187
(dp188
S'config'
p189
S'config/cmonkey_testing.cfg'
p190
ssS'tlclr'
p191
(dp192
S'bootstrap_runs'
p193
I10
sS'tau'
p194
I45
sg39
S'/Users/jesse/Workspace/School/MastersThesis/Program/output//TLCLR-DFG4grn-dream410-2011-12-15_01.35.30//TLCLR_No_KD//data//inSilico_size10_1_knockouts.tsv'
p195
sS'file_ext'
p196
S'R'
p197
sS'working_dir_config'
p198
S'/Users/jesse/Workspace/School/MastersThesis/Program/output//TLCLR-DFG4grn-dream410-2011-12-15_01.35.30//TLCLR_No_KD//tlclr_program/tlclr_launch_script.R'
p199
sS'plot'
p200
S'TRUE'
p201
sg5
S'/Users/jesse/Workspace/School/MastersThesis/Program/output//TLCLR-DFG4grn-dream410-2011-12-15_01.35.30//TLCLR_No_KD//data/'
p202
sS'num_steadystate_exp'
p203
I11
sS'kd_filename'
p204
NsS'other'
p205
S'None'
p206
sS'log_dir'
p207
S'/Users/jesse/Workspace/School/MastersThesis/Program/output//TLCLR-DFG4grn-dream410-2011-12-15_01.35.30//TLCLR_No_KD//log/'
p208
sS'config'
p209
S'config/tlclr_testing.cfg'
p210
sS'output_dir'
p211
S'/Users/jesse/Workspace/School/MastersThesis/Program/output//TLCLR-DFG4grn-dream410-2011-12-15_01.35.30//TLCLR_No_KD/'
p212
sS'delta_t_max'
p213
I110
sS'clr_design'
p214
S'time_delayed'
p215
sS'clr_response'
p216
S'inf_1_all_intervals'
p217
sS'timeseries'
p218
S'/Users/jesse/Workspace/School/MastersThesis/Program/output//TLCLR-DFG4grn-dream410-2011-12-15_01.35.30//TLCLR_No_KD//data//Timeseries-Rep0.csv'
p219
sS'path'
p220
S'algorithms/tlclr/'
p221
sS'lars_design'
p222
S'time_delayed'
p223
sS'settings_file'
p224
S'/Users/jesse/Workspace/School/MastersThesis/Program/output//TLCLR-DFG4grn-dream410-2011-12-15_01.35.30//TLCLR_No_KD//tlclr_settings.R'
p225
sg7
S'TLCLR_No_KD'
p226
sS'tfs_filename'
p227
NsS'ko_filename'
p228
NsS'wildtype'
p229
S'/Users/jesse/Workspace/School/MastersThesis/Program/output//TLCLR-DFG4grn-dream410-2011-12-15_01.35.30//TLCLR_No_KD//data//inSilico_size10_1_wildtype.tsv'
p230
sS'num_procs'
p231
I1
sS'wt_filename'
p232
NsS'ts_filename'
p233
NsS'lars_response'
p234
S'inf_1_all_intervals'
p235
ssS'global'
p236
(dp237
S'matlab_path'
p238
S'matlab'
p239
sS'medium2_network_goldnet_file'
p240
S'datasets/20Gene_Network2/Ecoli-20Genes-6Reg-3_goldstandard.tsv'
p241
sS'dream4100_network_knockdown_file'
p242
S'datasets/DREAM4_InSilico_Size100/insilico_size100_1/insilico_size100_1_knockdowns.tsv'
p243
sS'medium2_network_delta_t'
p244
I50
sS'large_network_knockdown_file'
p245
S'datasets/Large_Network/Ecoli-1_knockdowns.tsv'
p246
sS'dream410_network_delta_t'
p247
I50
sS'n_processors'
p248
I3
sS'large_network_timeseries_file'
p249
S'datasets/Large_Network/Ecoli-1_dream4_timeseries.tsv'
p250
sS'dream410_network_wildtype_file'
p251
S'datasets/DREAM4_InSilico_Size10/insilico_size10_1/inSilico_size10_1_wildtype.tsv'
p252
sS'medium2_network_timeseries_file'
p253
S'datasets/20Gene_Network2/Ecoli-20Genes-6Reg-3_dream4_timeseries.tsv'
p254
sS'time_series_delta_t'
p255
I50
sS'small_network_wildtype_file'
p256
S'datasets/Small_Network/Ecoli-1_wildtype.tsv'
p257
sS'medium_network_goldnet_file'
p258
S'datasets/20Gene_Network/Ecoli-20Genes-6Reg-2_goldstandard.tsv'
p259
sS'medium_network_timeseries_file'
p260
S'datasets/20Gene_Network/Ecoli-20Genes-6Reg-2_dream4_timeseries.tsv'
p261
sS'dream410_network_goldnet_file'
p262
S'datasets/DREAM4_InSilico_Size10/insilico_size10_1/DREAM4_GoldStandard_InSilico_Size10_1.tsv'
p263
sS'medium_network_wildtype_file'
p264
S'datasets/20Gene_Network/Ecoli-20Genes-6Reg-2_wildtype.tsv'
p265
sS'medium2_network_multifactorial_file'
p266
S'datasets/20Gene_Network2/Ecoli-20Genes-6Reg-3_multifactorial.tsv'
p267
sS'dream4100_network_goldnet_file'
p268
S'datasets/DREAM4_InSilico_Size100/insilico_size100_1/DREAM4_GoldStandard_InSilico_Size100_1.tsv'
p269
sS'dream4100_network_knockout_file'
p270
S'datasets/DREAM4_InSilico_Size100/insilico_size100_1/insilico_size100_1_knockouts.tsv'
p271
sS'large_network_goldnet_file'
p272
S'datasets/Large_Network/Ecoli-1_goldstandard.tsv'
p273
sS'large_network_knockout_file'
p274
S'datasets/Large_Network/Ecoli-1_knockouts.tsv'
p275
sS'working_dir'
p276
S'/Users/jesse/Workspace/School/MastersThesis/Program/'
p277
sS'small_network_multifactorial_file'
p278
S'datasets/Small_Network/Ecoli-1_multifactorial.tsv'
p279
sS'output_dir'
p280
S'output//TLCLR-DFG4grn-dream410-2011-12-15_01.35.30/'
p281
sS'medium2_network_knockdown_file'
p282
S'datasets/20Gene_Network2/Ecoli-20Genes-6Reg-3_knockdowns.tsv'
p283
sS'medium_network_multifactorial_file'
p284
S'datasets/20Gene_Network/Ecoli-20Genes-6Reg-2_multifactorial.tsv'
p285
sS'log_dir'
p286
S'output/logs/'
p287
sS'dream4100_network_delta_t'
p288
I50
sS'steady_state_files'
p289
S'550ath.ratios.fix'
p290
sS'small_network_goldnet_file'
p291
S'datasets/Small_Network/Ecoli-1_goldstandard.tsv'
p292
sS'tflist'
p293
S'ArabGeneTFNames.csv'
p294
sS'dream4100_network_wildtype_file'
p295
S'datasets/DREAM4_InSilico_Size100/insilico_size100_1/insilico_size100_1_wildtype.tsv'
p296
sS'use_cluster'
p297
S'False'
p298
sS'medium_network_delta_t'
p299
I50
sS'time_series_files'
p300
S'datasets/dream4_10/dream4_ts.tsv'
p301
sS'small_network_delta_t'
p302
I30
sS'small_network_timeseries_file'
p303
S'datasets/Small_Network/Ecoli-1_dream4_timeseries.tsv'
p304
sS'large_network_delta_t'
p305
I30
sS'medium2_network_wildtype_file'
p306
S'datasets/20Gene_Network2/Ecoli-20Genes-6Reg-3_wildtype.tsv'
p307
sS'dream410_network_knockdown_file'
p308
S'datasets/DREAM4_InSilico_Size10/insilico_size10_1/inSilico_size10_1_knockdowns.tsv'
p309
sS'dream4100_network_timeseries_file'
p310
S'datasets/DREAM4_InSilico_Size100/insilico_size100_1/insilico_size100_1_timeseries.tsv'
p311
sS'dream410_network_timeseries_file'
p312
S'datasets/DREAM4_InSilico_Size10/insilico_size10_1/inSilico_size10_1_timeseries.tsv'
p313
sS'template_dir'
p314
S'config/templates/'
p315
sS'medium_network_knockout_file'
p316
S'datasets/20Gene_Network/Ecoli-20Genes-6Reg-2_knockouts.tsv'
p317
sS'large_network_multifactorial_file'
p318
S'datasets/Large_Network/Ecoli-1_multifactorial.tsv'
p319
sS'dream4100_network_multifactorial_file'
p320
S'datasets/DREAM4_InSilico_Size100/insilico_size100_1/insilico_size100_1_multifactorial.tsv'
p321
sS'large_network_wildtype_file'
p322
S'datasets/Large_Network/Ecoli-1_wildtype.tsv'
p323
sS'experiment_name'
p324
S'TLCLR-DFG4grn-dream410'
p325
sS'small_network_knockdown_file'
p326
S'datasets/Small_Network/Ecoli-1_knockdowns.tsv'
p327
sS'dream410_network_knockout_file'
p328
g44
sS'dream410_network_multifactorial_file'
p329
S'datasets/DREAM4_InSilico_Size10/insilico_size10_1/inSilico_size10_1_multifactorial.tsv'
p330
sS'small_network_knockout_file'
p331
S'datasets/Small_Network/Ecoli-1_knockouts.tsv'
p332
sS'medium2_network_knockout_file'
p333
S'datasets/20Gene_Network2/Ecoli-20Genes-6Reg-3_knockouts.tsv'
p334
sS'medium_network_knockdown_file'
p335
S'datasets/20Gene_Network/Ecoli-20Genes-6Reg-2_knockdowns.tsv'
p336
ssS'dfg4gen'
p337
(dp338
S'tfs_file'
p339
S'ArabGeneTFNames.csv'
p340
ssS'mcz'
p341
(dp342
S'config'
p343
S'config/mcz_testing.cfg'
p344
ssS'nir'
p345
(dp346
S'config'
p347
S'config/nir_testing.cfg'
p348
ssS'banjo'
p349
(dp350
S'num_genes'
p351
I10
sS'config'
p352
S'config/banjo_testing.cfg'
p353
ssS'dfg4grn'
p354
(dp355
S'cluster_expname'
p356
S'testing'
p357
sS'tau'
p358
I10
sS'lambda_w'
p359
I2
sS'cluster_nodes'
p360
I1
sS'cluster_email'
p361
S'jml654@nyu.edu'
p362
sS'tau_range'
p363
(lp364
I1
aI3
asS'eta_z_range'
p365
(lp366
F0.0001
aF0.1
asS'eta_z'
p367
I3
sS'lambda_w_range'
p368
(lp369
F0.001
aF0.2
asS'cluster_priority'
p370
I1
sS'path'
p371
S'algorithms/dfg4grn/'
p372
sS'cluster_procs'
p373
I1
sS'config'
p374
S'config/dfg4grn_testing.cfg'
p375
sS'cluster_username'
p376
S'jml654'
p377
ssS'nirest'
p378
(dp379
S'ratio_files'
p380
S'datasets/dream4_10/dream4_ts.tsv'
p381
sS'config'
p382
S'config/nirest_testing.cfg'
p383
sssS'ts_storage'
p384
(lp385
(iDataStore
MicroarrayData
p386
(dp387
g12
(lp388
(iDataStore
Experiment
p389
(dp390
g16
(dp391
S'G7'
p392
S'0.6067846'
p393
sS'G6'
p394
S'0.2754930'
p395
sS'G5'
p396
S'0.1004299'
p397
sS'G4'
p398
S'0.7745716'
p399
sS'G3'
p400
S'0.3550646'
p401
sS'G2'
p402
S'0.1272186'
p403
sS'G1'
p404
S'0.6665114'
p405
sS'G9'
p406
S'0.6656366'
p407
sS'G8'
p408
S'0.7430983'
p409
sS'G10'
p410
S'0.6950638'
p411
ssg38
g218
sg40
g41
sg7
S'0.0'
p412
sg43
S'Timeseries-Rep3.csv'
p413
sba(iDataStore
Experiment
p414
(dp415
g16
(dp416
g392
S'0.6096963'
p417
sg394
S'0.3107637'
p418
sg396
S'0.1924591'
p419
sg398
S'0.7229108'
p420
sg400
S'0.3464115'
p421
sg402
S'0.1218223'
p422
sg404
S'0.3257748'
p423
sg406
S'0.5554138'
p424
sg408
S'0.7567515'
p425
sg410
S'0.7327167'
p426
ssg38
g218
sg40
g41
sg7
S'50.0'
p427
sg43
g413
sba(iDataStore
Experiment
p428
(dp429
g16
(dp430
g392
S'0.4647324'
p431
sg394
S'0.3569736'
p432
sg396
S'0.2333497'
p433
sg398
S'0.5868280'
p434
sg400
S'0.5712888'
p435
sg402
S'0.0443587'
p436
sg404
S'0.1775012'
p437
sg406
S'0.7211032'
p438
sg408
S'0.6656993'
p439
sg410
S'0.6717156'
p440
ssg38
g218
sg40
g41
sg7
S'100.0'
p441
sg43
g413
sba(iDataStore
Experiment
p442
(dp443
g16
(dp444
g392
S'0.4200074'
p445
sg394
S'0.3375671'
p446
sg396
S'0.4045100'
p447
sg398
S'0.6338205'
p448
sg400
S'0.4849771'
p449
sg402
S'0.0615354'
p450
sg404
S'0.1838851'
p451
sg406
S'0.6402268'
p452
sg408
S'0.7324089'
p453
sg410
S'0.6970434'
p454
ssg38
g218
sg40
g41
sg7
S'150.0'
p455
sg43
g413
sba(iDataStore
Experiment
p456
(dp457
g16
(dp458
g392
S'0.4145393'
p459
sg394
S'0.2994227'
p460
sg396
S'0.5583316'
p461
sg398
S'0.5354375'
p462
sg400
S'0.3435551'
p463
sg402
S'0.1398431'
p464
sg404
S'0.0930693'
p465
sg406
S'0.5478739'
p466
sg408
S'0.6771472'
p467
sg410
S'0.7512751'
p468
ssg38
g218
sg40
g41
sg7
S'200.0'
p469
sg43
g413
sba(iDataStore
Experiment
p470
(dp471
g16
(dp472
g392
S'0.5788573'
p473
sg394
S'0.3676576'
p474
sg396
S'0.6429076'
p475
sg398
S'0.5255509'
p476
sg400
S'0.3124305'
p477
sg402
S'0.0886361'
p478
sg404
S'0.0653015'
p479
sg406
S'0.5983088'
p480
sg408
S'0.8026375'
p481
sg410
S'0.6088625'
p482
ssg38
g218
sg40
g41
sg7
S'250.0'
p483
sg43
g413
sba(iDataStore
Experiment
p484
(dp485
g16
(dp486
g392
S'0.5993621'
p487
sg394
S'0.2992928'
p488
sg396
S'0.5350145'
p489
sg398
S'0.4599706'
p490
sg400
S'0.4126412'
p491
sg402
S'0.0948080'
p492
sg404
S'0.1502136'
p493
sg406
S'0.7288696'
p494
sg408
S'0.6181808'
p495
sg410
S'0.6660468'
p496
ssg38
g218
sg40
g41
sg7
S'300.0'
p497
sg43
g413
sba(iDataStore
Experiment
p498
(dp499
g16
(dp500
g392
S'0.6775364'
p501
sg394
S'0.3430145'
p502
sg396
S'0.5641511'
p503
sg398
S'0.4214017'
p504
sg400
S'0.3764574'
p505
sg402
S'0.0904510'
p506
sg404
S'0.0913323'
p507
sg406
S'0.7736935'
p508
sg408
S'0.5235399'
p509
sg410
S'0.7443968'
p510
ssg38
g218
sg40
g41
sg7
S'350.0'
p511
sg43
g413
sba(iDataStore
Experiment
p512
(dp513
g16
(dp514
g392
S'0.5142803'
p515
sg394
S'0.2333228'
p516
sg396
S'0.6718907'
p517
sg398
S'0.5030134'
p518
sg400
S'0.5188737'
p519
sg402
S'0.1182462'
p520
sg404
S'0.1358562'
p521
sg406
S'0.6843619'
p522
sg408
S'0.6087675'
p523
sg410
S'0.8365310'
p524
ssg38
g218
sg40
g41
sg7
S'400.0'
p525
sg43
g413
sba(iDataStore
Experiment
p526
(dp527
g16
(dp528
g392
S'0.4995680'
p529
sg394
S'0.3815948'
p530
sg396
S'0.6740419'
p531
sg398
S'0.4831358'
p532
sg400
S'0.3768678'
p533
sg402
S'0.0765614'
p534
sg404
S'0.1667014'
p535
sg406
S'0.7486546'
p536
sg408
S'0.5959077'
p537
sg410
S'0.7173045'
p538
ssg38
g218
sg40
g41
sg7
S'450.0'
p539
sg43
g413
sba(iDataStore
Experiment
p540
(dp541
g16
(dp542
g392
S'0.5091151'
p543
sg394
S'0.3344889'
p544
sg396
S'0.7354699'
p545
sg398
S'0.5403027'
p546
sg400
S'0.4322347'
p547
sg402
S'0.0755040'
p548
sg404
S'0.1170103'
p549
sg406
S'0.6725776'
p550
sg408
S'0.7152812'
p551
sg410
S'0.6325963'
p552
ssg38
g218
sg40
g41
sg7
S'500.0'
p553
sg43
g413
sba(iDataStore
Experiment
p554
(dp555
g16
(dp556
g392
S'0.4479249'
p557
sg394
S'0.3585150'
p558
sg396
S'0.4852550'
p559
sg398
S'0.6183860'
p560
sg400
S'0.3453156'
p561
sg402
S'0.0937210'
p562
sg404
S'0.4708819'
p563
sg406
S'0.7919255'
p564
sg408
S'0.7052075'
p565
sg410
S'0.5868152'
p566
ssg38
g218
sg40
g41
sg7
S'550.0'
p567
sg43
g413
sba(iDataStore
Experiment
p568
(dp569
g16
(dp570
g392
S'0.4196698'
p571
sg394
S'0.3239021'
p572
sg396
S'0.3257959'
p573
sg398
S'0.6233838'
p574
sg400
S'0.4763379'
p575
sg402
S'0.1443166'
p576
sg404
S'0.5545089'
p577
sg406
S'0.5791635'
p578
sg408
S'0.7299200'
p579
sg410
S'0.6029599'
p580
ssg38
g218
sg40
g41
sg7
S'600.0'
p581
sg43
g413
sba(iDataStore
Experiment
p582
(dp583
g16
(dp584
g392
S'0.4524902'
p585
sg394
S'0.2928635'
p586
sg396
S'0.2634359'
p587
sg398
S'0.6429242'
p588
sg400
S'0.3527660'
p589
sg402
S'0.1580246'
p590
sg404
S'0.5717737'
p591
sg406
S'0.6633159'
p592
sg408
S'0.7210641'
p593
sg410
S'0.6927663'
p594
ssg38
g218
sg40
g41
sg7
S'650.0'
p595
sg43
g413
sba(iDataStore
Experiment
p596
(dp597
g16
(dp598
g392
S'0.6356541'
p599
sg394
S'0.3049710'
p600
sg396
S'0.1906673'
p601
sg398
S'0.7448212'
p602
sg400
S'0.3817925'
p603
sg402
S'0.0906398'
p604
sg404
S'0.6437458'
p605
sg406
S'0.8094115'
p606
sg408
S'0.6836201'
p607
sg410
S'0.7286575'
p608
ssg38
g218
sg40
g41
sg7
S'700.0'
p609
sg43
g413
sba(iDataStore
Experiment
p610
(dp611
g16
(dp612
g392
S'0.5680143'
p613
sg394
S'0.2934906'
p614
sg396
S'0.1278089'
p615
sg398
S'0.6477586'
p616
sg400
S'0.4025808'
p617
sg402
S'0.0959292'
p618
sg404
S'0.6988616'
p619
sg406
S'0.6819686'
p620
sg408
S'0.7435989'
p621
sg410
S'0.8213812'
p622
ssg38
g218
sg40
g41
sg7
S'750.0'
p623
sg43
g413
sba(iDataStore
Experiment
p624
(dp625
g16
(dp626
g392
S'0.5652458'
p627
sg394
S'0.3429125'
p628
sg396
S'0.1340147'
p629
sg398
S'0.7884273'
p630
sg400
S'0.3520098'
p631
sg402
S'0.1251139'
p632
sg404
S'0.6002293'
p633
sg406
S'0.7548764'
p634
sg408
S'0.6701132'
p635
sg410
S'0.6814079'
p636
ssg38
g218
sg40
g41
sg7
S'800.0'
p637
sg43
g413
sba(iDataStore
Experiment
p638
(dp639
g16
(dp640
g392
S'0.3950302'
p641
sg394
S'0.3146772'
p642
sg396
S'0.1391781'
p643
sg398
S'0.7086632'
p644
sg400
S'0.4541817'
p645
sg402
S'0.0985328'
p646
sg404
S'0.7516840'
p647
sg406
S'0.6583495'
p648
sg408
S'0.6562918'
p649
sg410
S'0.6836276'
p650
ssg38
g218
sg40
g41
sg7
S'850.0'
p651
sg43
g413
sba(iDataStore
Experiment
p652
(dp653
g16
(dp654
g392
S'0.4627621'
p655
sg394
S'0.3309160'
p656
sg396
S'0.0960015'
p657
sg398
S'0.7009680'
p658
sg400
S'0.4254553'
p659
sg402
S'0.0823597'
p660
sg404
S'0.7058190'
p661
sg406
S'0.6866225'
p662
sg408
S'0.6610090'
p663
sg410
S'0.7453896'
p664
ssg38
g218
sg40
g41
sg7
S'900.0'
p665
sg43
g413
sba(iDataStore
Experiment
p666
(dp667
g16
(dp668
g392
S'0.5903798'
p669
sg394
S'0.3386791'
p670
sg396
S'0.1389801'
p671
sg398
S'0.6602306'
p672
sg400
S'0.3168437'
p673
sg402
S'0.1131190'
p674
sg404
S'0.6863142'
p675
sg406
S'0.7001660'
p676
sg408
S'0.6151949'
p677
sg410
S'0.6450720'
p678
ssg38
g218
sg40
g41
sg7
S'950.0'
p679
sg43
g413
sba(iDataStore
Experiment
p680
(dp681
g16
(dp682
g392
S'0.5938670'
p683
sg394
S'0.2846131'
p684
sg396
S'0.1181666'
p685
sg398
S'0.6695402'
p686
sg400
S'0.3340166'
p687
sg402
S'0.0780578'
p688
sg404
S'0.6785873'
p689
sg406
S'0.7702145'
p690
sg408
S'0.6823825'
p691
sg410
S'0.6068127'
p692
ssg38
g218
sg40
g41
sg7
S'1000.0'
p693
sg43
g413
sbasg38
g218
sg171
Nsg172
(lp694
g404
ag402
ag400
ag398
ag396
ag394
ag392
ag408
ag406
ag410
asg174
(lp695
S'Timeseries-Rep0.csv'
p696
asba(iDataStore
MicroarrayData
p697
(dp698
g12
(lp699
(iDataStore
Experiment
p700
(dp701
g16
(dp702
g392
S'0.5905584'
p703
sg394
S'0.2494241'
p704
sg396
S'0.1445523'
p705
sg398
S'0.5990709'
p706
sg400
S'0.3080785'
p707
sg402
S'0.1735119'
p708
sg404
S'0.6927804'
p709
sg406
S'0.6891143'
p710
sg408
S'0.6367970'
p711
sg410
S'0.6944974'
p712
ssg38
g218
sg40
g41
sg7
S'0.0'
p713
sg43
g413
sba(iDataStore
Experiment
p714
(dp715
g16
(dp716
g392
S'0.2199619'
p717
sg394
S'0.3952169'
p718
sg396
S'0.2136285'
p719
sg398
S'0.6576991'
p720
sg400
S'0.2815777'
p721
sg402
S'0.0954328'
p722
sg404
S'0.6137000'
p723
sg406
S'0.6843410'
p724
sg408
S'0.5711943'
p725
sg410
S'0.6816443'
p726
ssg38
g218
sg40
g41
sg7
S'50.0'
p727
sg43
g413
sba(iDataStore
Experiment
p728
(dp729
g16
(dp730
g392
S'0.1706594'
p731
sg394
S'0.3336192'
p732
sg396
S'0.2556762'
p733
sg398
S'0.6349119'
p734
sg400
S'0.2896261'
p735
sg402
S'0.0704157'
p736
sg404
S'0.5923916'
p737
sg406
S'0.6408686'
p738
sg408
S'0.7645988'
p739
sg410
S'0.6201303'
p740
ssg38
g218
sg40
g41
sg7
S'100.0'
p741
sg43
g413
sba(iDataStore
Experiment
p742
(dp743
g16
(dp744
g392
S'0.1213159'
p745
sg394
S'0.3849495'
p746
sg396
S'0.1315485'
p747
sg398
S'0.5846269'
p748
sg400
S'0.1935983'
p749
sg402
S'0.0880437'
p750
sg404
S'0.5868361'
p751
sg406
S'0.8166294'
p752
sg408
S'0.7072442'
p753
sg410
S'0.7047542'
p754
ssg38
g218
sg40
g41
sg7
S'150.0'
p755
sg43
g413
sba(iDataStore
Experiment
p756
(dp757
g16
(dp758
g392
S'0.0786808'
p759
sg394
S'0.3736593'
p760
sg396
S'0.1687147'
p761
sg398
S'0.4509727'
p762
sg400
S'0.2186433'
p763
sg402
S'0.1149911'
p764
sg404
S'0.6293309'
p765
sg406
S'0.8038210'
p766
sg408
S'0.6970827'
p767
sg410
S'0.6925731'
p768
ssg38
g218
sg40
g41
sg7
S'200.0'
p769
sg43
g413
sba(iDataStore
Experiment
p770
(dp771
g16
(dp772
g392
S'0.1242939'
p773
sg394
S'0.3834565'
p774
sg396
S'0.1772348'
p775
sg398
S'0.4333604'
p776
sg400
S'0.2137598'
p777
sg402
S'0.0990501'
p778
sg404
S'0.5170203'
p779
sg406
S'0.7563581'
p780
sg408
S'0.7901656'
p781
sg410
S'0.7286596'
p782
ssg38
g218
sg40
g41
sg7
S'250.0'
p783
sg43
g413
sba(iDataStore
Experiment
p784
(dp785
g16
(dp786
g392
S'0.1323223'
p787
sg394
S'0.4000143'
p788
sg396
S'0.2365102'
p789
sg398
S'0.3898388'
p790
sg400
S'0.2892190'
p791
sg402
S'0.1159865'
p792
sg404
S'0.4709636'
p793
sg406
S'0.7090849'
p794
sg408
S'0.6791003'
p795
sg410
S'0.8249540'
p796
ssg38
g218
sg40
g41
sg7
S'300.0'
p797
sg43
g413
sba(iDataStore
Experiment
p798
(dp799
g16
(dp800
g392
S'0.0792747'
p801
sg394
S'0.3912156'
p802
sg396
S'0.2065817'
p803
sg398
S'0.4384157'
p804
sg400
S'0.2997476'
p805
sg402
S'0.0802760'
p806
sg404
S'0.6269998'
p807
sg406
S'0.6641130'
p808
sg408
S'0.6322451'
p809
sg410
S'0.7280306'
p810
ssg38
g218
sg40
g41
sg7
S'350.0'
p811
sg43
g413
sba(iDataStore
Experiment
p812
(dp813
g16
(dp814
g392
S'0.1492018'
p815
sg394
S'0.2349554'
p816
sg396
S'0.1484264'
p817
sg398
S'0.3779466'
p818
sg400
S'0.2573068'
p819
sg402
S'0.1042932'
p820
sg404
S'0.5284701'
p821
sg406
S'0.7596715'
p822
sg408
S'0.7928320'
p823
sg410
S'0.7133538'
p824
ssg38
g218
sg40
g41
sg7
S'400.0'
p825
sg43
g413
sba(iDataStore
Experiment
p826
(dp827
g16
(dp828
g392
S'0.1158488'
p829
sg394
S'0.4213528'
p830
sg396
S'0.1235777'
p831
sg398
S'0.3494604'
p832
sg400
S'0.2196169'
p833
sg402
S'0.1482319'
p834
sg404
S'0.5110939'
p835
sg406
S'0.7145425'
p836
sg408
S'0.6740440'
p837
sg410
S'0.7374688'
p838
ssg38
g218
sg40
g41
sg7
S'450.0'
p839
sg43
g413
sba(iDataStore
Experiment
p840
(dp841
g16
(dp842
g392
S'0.1350158'
p843
sg394
S'0.4517705'
p844
sg396
S'0.2365731'
p845
sg398
S'0.4211469'
p846
sg400
S'0.3025012'
p847
sg402
S'0.1153365'
p848
sg404
S'0.4882966'
p849
sg406
S'0.7176833'
p850
sg408
S'0.6484841'
p851
sg410
S'0.6872276'
p852
ssg38
g218
sg40
g41
sg7
S'500.0'
p853
sg43
g413
sba(iDataStore
Experiment
p854
(dp855
g16
(dp856
g392
S'0.6042338'
p857
sg394
S'0.3075680'
p858
sg396
S'0.2487479'
p859
sg398
S'0.4513658'
p860
sg400
S'0.3245931'
p861
sg402
S'0.1181288'
p862
sg404
S'0.6433641'
p863
sg406
S'0.6728155'
p864
sg408
S'0.7092563'
p865
sg410
S'0.6264014'
p866
ssg38
g218
sg40
g41
sg7
S'550.0'
p867
sg43
g413
sba(iDataStore
Experiment
p868
(dp869
g16
(dp870
g392
S'0.6519328'
p871
sg394
S'0.3823430'
p872
sg396
S'0.1447856'
p873
sg398
S'0.6388667'
p874
sg400
S'0.3060205'
p875
sg402
S'0.1228048'
p876
sg404
S'0.6171846'
p877
sg406
S'0.8328277'
p878
sg408
S'0.8569027'
p879
sg410
S'0.6102972'
p880
ssg38
g218
sg40
g41
sg7
S'600.0'
p881
sg43
g413
sba(iDataStore
Experiment
p882
(dp883
g16
(dp884
g392
S'0.6791125'
p885
sg394
S'0.3415498'
p886
sg396
S'0.1544187'
p887
sg398
S'0.6134333'
p888
sg400
S'0.3987270'
p889
sg402
S'0.0804874'
p890
sg404
S'0.8024419'
p891
sg406
S'0.6930467'
p892
sg408
S'0.7222545'
p893
sg410
S'0.6109138'
p894
ssg38
g218
sg40
g41
sg7
S'650.0'
p895
sg43
g413
sba(iDataStore
Experiment
p896
(dp897
g16
(dp898
g392
S'0.5099839'
p899
sg394
S'0.3402294'
p900
sg396
S'0.1578423'
p901
sg398
S'0.6801495'
p902
sg400
S'0.3594883'
p903
sg402
S'0.0871222'
p904
sg404
S'0.7804539'
p905
sg406
S'0.6455296'
p906
sg408
S'0.7069292'
p907
sg410
S'0.7232683'
p908
ssg38
g218
sg40
g41
sg7
S'700.0'
p909
sg43
g413
sba(iDataStore
Experiment
p910
(dp911
g16
(dp912
g392
S'0.5312501'
p913
sg394
S'0.3014502'
p914
sg396
S'0.0912002'
p915
sg398
S'0.6614428'
p916
sg400
S'0.4407318'
p917
sg402
S'0.0996338'
p918
sg404
S'0.8290307'
p919
sg406
S'0.6898205'
p920
sg408
S'0.6374457'
p921
sg410
S'0.5949425'
p922
ssg38
g218
sg40
g41
sg7
S'750.0'
p923
sg43
g413
sba(iDataStore
Experiment
p924
(dp925
g16
(dp926
g392
S'0.3978822'
p927
sg394
S'0.3563181'
p928
sg396
S'0.1013723'
p929
sg398
S'0.6225854'
p930
sg400
S'0.3369789'
p931
sg402
S'0.0988457'
p932
sg404
S'0.7490433'
p933
sg406
S'0.7440107'
p934
sg408
S'0.6009584'
p935
sg410
S'0.7923625'
p936
ssg38
g218
sg40
g41
sg7
S'800.0'
p937
sg43
g413
sba(iDataStore
Experiment
p938
(dp939
g16
(dp940
g392
S'0.3892781'
p941
sg394
S'0.3467893'
p942
sg396
S'0.1361985'
p943
sg398
S'0.7599636'
p944
sg400
S'0.4387776'
p945
sg402
S'0.0482351'
p946
sg404
S'0.5887312'
p947
sg406
S'0.6533540'
p948
sg408
S'0.6715002'
p949
sg410
S'0.7493886'
p950
ssg38
g218
sg40
g41
sg7
S'850.0'
p951
sg43
g413
sba(iDataStore
Experiment
p952
(dp953
g16
(dp954
g392
S'0.4222378'
p955
sg394
S'0.3105481'
p956
sg396
S'0.1683970'
p957
sg398
S'0.5764897'
p958
sg400
S'0.3228902'
p959
sg402
S'0.1078080'
p960
sg404
S'0.6694072'
p961
sg406
S'0.6421272'
p962
sg408
S'0.7085699'
p963
sg410
S'0.6938667'
p964
ssg38
g218
sg40
g41
sg7
S'900.0'
p965
sg43
g413
sba(iDataStore
Experiment
p966
(dp967
g16
(dp968
g392
S'0.5092373'
p969
sg394
S'0.2960746'
p970
sg396
S'0.1180917'
p971
sg398
S'0.7964334'
p972
sg400
S'0.2685038'
p973
sg402
S'0.0819181'
p974
sg404
S'0.7164183'
p975
sg406
S'0.6454818'
p976
sg408
S'0.7121105'
p977
sg410
S'0.6612289'
p978
ssg38
g218
sg40
g41
sg7
S'950.0'
p979
sg43
g413
sba(iDataStore
Experiment
p980
(dp981
g16
(dp982
g392
S'0.5376463'
p983
sg394
S'0.2432311'
p984
sg396
S'0.1803657'
p985
sg398
S'0.6352872'
p986
sg400
S'0.3146458'
p987
sg402
S'0.1198640'
p988
sg404
S'0.8032117'
p989
sg406
S'0.6253106'
p990
sg408
S'0.6763547'
p991
sg410
S'0.5716938'
p992
ssg38
g218
sg40
g41
sg7
S'1000.0'
p993
sg43
g413
sbasg38
g218
sg171
Nsg172
(lp994
g404
ag402
ag400
ag398
ag396
ag394
ag392
ag408
ag406
ag410
asg174
(lp995
S'Timeseries-Rep1.csv'
p996
asba(iDataStore
MicroarrayData
p997
(dp998
g12
(lp999
(iDataStore
Experiment
p1000
(dp1001
g16
(dp1002
g392
S'0.5852446'
p1003
sg394
S'0.2777284'
p1004
sg396
S'0.1394119'
p1005
sg398
S'0.6290043'
p1006
sg400
S'0.4955336'
p1007
sg402
S'0.0965407'
p1008
sg404
S'0.7025546'
p1009
sg406
S'0.7189792'
p1010
sg408
S'0.6987308'
p1011
sg410
S'0.6317014'
p1012
ssg38
g218
sg40
g41
sg7
S'0.0'
p1013
sg43
g413
sba(iDataStore
Experiment
p1014
(dp1015
g16
(dp1016
g392
S'0.3879914'
p1017
sg394
S'0.3160889'
p1018
sg396
S'0.1601289'
p1019
sg398
S'0.6331020'
p1020
sg400
S'0.4120065'
p1021
sg402
S'0.0066399'
p1022
sg404
S'0.2670111'
p1023
sg406
S'0.8405381'
p1024
sg408
S'0.3125419'
p1025
sg410
S'0.7525926'
p1026
ssg38
g218
sg40
g41
sg7
S'50.0'
p1027
sg43
g413
sba(iDataStore
Experiment
p1028
(dp1029
g16
(dp1030
g392
S'0.5371867'
p1031
sg394
S'0.4121452'
p1032
sg396
S'0.3527526'
p1033
sg398
S'0.6388113'
p1034
sg400
S'0.3162661'
p1035
sg402
S'0.0002031'
p1036
sg404
S'0.1495577'
p1037
sg406
S'0.7847303'
p1038
sg408
S'0.2207124'
p1039
sg410
S'0.6308077'
p1040
ssg38
g218
sg40
g41
sg7
S'100.0'
p1041
sg43
g413
sba(iDataStore
Experiment
p1042
(dp1043
g16
(dp1044
g392
S'0.5854555'
p1045
sg394
S'0.4561672'
p1046
sg396
S'0.5828865'
p1047
sg398
S'0.5332911'
p1048
sg400
S'0.3444491'
p1049
sg402
S'0.0000726'
p1050
sg404
S'0.1258573'
p1051
sg406
S'0.6864760'
p1052
sg408
S'0.1641590'
p1053
sg410
S'0.6603441'
p1054
ssg38
g218
sg40
g41
sg7
S'150.0'
p1055
sg43
g413
sba(iDataStore
Experiment
p1056
(dp1057
g16
(dp1058
g392
S'0.4715633'
p1059
sg394
S'0.5160537'
p1060
sg396
S'0.6474004'
p1061
sg398
S'0.4870183'
p1062
sg400
S'0.3601180'
p1063
sg402
S'0.0007181'
p1064
sg404
S'0.1503708'
p1065
sg406
S'0.7514894'
p1066
sg408
S'0.1138825'
p1067
sg410
S'0.7220521'
p1068
ssg38
g218
sg40
g41
sg7
S'200.0'
p1069
sg43
g413
sba(iDataStore
Experiment
p1070
(dp1071
g16
(dp1072
g392
S'0.5616858'
p1073
sg394
S'0.5849437'
p1074
sg396
S'0.5962019'
p1075
sg398
S'0.3816565'
p1076
sg400
S'0.2514869'
p1077
sg402
S'0.0010901'
p1078
sg404
S'0.1147272'
p1079
sg406
S'0.7451011'
p1080
sg408
S'0.0875836'
p1081
sg410
S'0.9215333'
p1082
ssg38
g218
sg40
g41
sg7
S'250.0'
p1083
sg43
g413
sba(iDataStore
Experiment
p1084
(dp1085
g16
(dp1086
g392
S'0.5828932'
p1087
sg394
S'0.6962295'
p1088
sg396
S'0.7206053'
p1089
sg398
S'0.4027960'
p1090
sg400
S'0.4130228'
p1091
sg402
S'0.0006993'
p1092
sg404
S'0.1136885'
p1093
sg406
S'0.7346484'
p1094
sg408
S'0.1047608'
p1095
sg410
S'0.6120013'
p1096
ssg38
g218
sg40
g41
sg7
S'300.0'
p1097
sg43
g413
sba(iDataStore
Experiment
p1098
(dp1099
g16
(dp1100
g392
S'0.5699641'
p1101
sg394
S'0.6188064'
p1102
sg396
S'0.6110892'
p1103
sg398
S'0.4555527'
p1104
sg400
S'0.5144453'
p1105
sg402
S'0.0006402'
p1106
sg404
S'0.1074903'
p1107
sg406
S'0.7260995'
p1108
sg408
S'0.1494655'
p1109
sg410
S'0.7034582'
p1110
ssg38
g218
sg40
g41
sg7
S'350.0'
p1111
sg43
g413
sba(iDataStore
Experiment
p1112
(dp1113
g16
(dp1114
g392
S'0.5705248'
p1115
sg394
S'0.6340790'
p1116
sg396
S'0.7049432'
p1117
sg398
S'0.4184513'
p1118
sg400
S'0.3046374'
p1119
sg402
S'0.0000216'
p1120
sg404
S'0.0916218'
p1121
sg406
S'0.7072688'
p1122
sg408
S'0.1345381'
p1123
sg410
S'0.7037104'
p1124
ssg38
g218
sg40
g41
sg7
S'400.0'
p1125
sg43
g413
sba(iDataStore
Experiment
p1126
(dp1127
g16
(dp1128
g392
S'0.5182417'
p1129
sg394
S'0.4893698'
p1130
sg396
S'0.6032927'
p1131
sg398
S'0.4398207'
p1132
sg400
S'0.4381759'
p1133
sg402
S'0.0001071'
p1134
sg404
S'0.0704370'
p1135
sg406
S'0.7245269'
p1136
sg408
S'0.1445357'
p1137
sg410
S'0.6900767'
p1138
ssg38
g218
sg40
g41
sg7
S'450.0'
p1139
sg43
g413
sba(iDataStore
Experiment
p1140
(dp1141
g16
(dp1142
g392
S'0.5254869'
p1143
sg394
S'0.5912179'
p1144
sg396
S'0.6065379'
p1145
sg398
S'0.4081400'
p1146
sg400
S'0.4247121'
p1147
sg402
S'0.0000243'
p1148
sg404
S'0.1084545'
p1149
sg406
S'0.7796607'
p1150
sg408
S'0.1195000'
p1151
sg410
S'0.7214128'
p1152
ssg38
g218
sg40
g41
sg7
S'500.0'
p1153
sg43
g413
sba(iDataStore
Experiment
p1154
(dp1155
g16
(dp1156
g392
S'0.4837116'
p1157
sg394
S'0.5662445'
p1158
sg396
S'0.6220579'
p1159
sg398
S'0.4666379'
p1160
sg400
S'0.3493963'
p1161
sg402
S'0.1669844'
p1162
sg404
S'0.4934324'
p1163
sg406
S'0.7879295'
p1164
sg408
S'0.5461221'
p1165
sg410
S'0.7344458'
p1166
ssg38
g218
sg40
g41
sg7
S'550.0'
p1167
sg43
g413
sba(iDataStore
Experiment
p1168
(dp1169
g16
(dp1170
g392
S'0.5869444'
p1171
sg394
S'0.4739788'
p1172
sg396
S'0.3116094'
p1173
sg398
S'0.5659879'
p1174
sg400
S'0.2905074'
p1175
sg402
S'0.1396843'
p1176
sg404
S'0.6485525'
p1177
sg406
S'0.6549880'
p1178
sg408
S'0.6502586'
p1179
sg410
S'0.6450217'
p1180
ssg38
g218
sg40
g41
sg7
S'600.0'
p1181
sg43
g413
sba(iDataStore
Experiment
p1182
(dp1183
g16
(dp1184
g392
S'0.5316969'
p1185
sg394
S'0.3214644'
p1186
sg396
S'0.3052366'
p1187
sg398
S'0.5786856'
p1188
sg400
S'0.4188026'
p1189
sg402
S'0.0786818'
p1190
sg404
S'0.7971715'
p1191
sg406
S'0.6432834'
p1192
sg408
S'0.7105375'
p1193
sg410
S'0.7139627'
p1194
ssg38
g218
sg40
g41
sg7
S'650.0'
p1195
sg43
g413
sba(iDataStore
Experiment
p1196
(dp1197
g16
(dp1198
g392
S'0.4560579'
p1199
sg394
S'0.3322274'
p1200
sg396
S'0.1586621'
p1201
sg398
S'0.6022758'
p1202
sg400
S'0.4350727'
p1203
sg402
S'0.0780344'
p1204
sg404
S'0.5833888'
p1205
sg406
S'0.6150558'
p1206
sg408
S'0.6787980'
p1207
sg410
S'0.7626299'
p1208
ssg38
g218
sg40
g41
sg7
S'700.0'
p1209
sg43
g413
sba(iDataStore
Experiment
p1210
(dp1211
g16
(dp1212
g392
S'0.3600829'
p1213
sg394
S'0.3789285'
p1214
sg396
S'0.1446601'
p1215
sg398
S'0.6865068'
p1216
sg400
S'0.3151357'
p1217
sg402
S'0.1123633'
p1218
sg404
S'0.7644667'
p1219
sg406
S'0.7599346'
p1220
sg408
S'0.6422636'
p1221
sg410
S'0.7957661'
p1222
ssg38
g218
sg40
g41
sg7
S'750.0'
p1223
sg43
g413
sba(iDataStore
Experiment
p1224
(dp1225
g16
(dp1226
g392
S'0.5459900'
p1227
sg394
S'0.3403691'
p1228
sg396
S'0.1015360'
p1229
sg398
S'0.6589912'
p1230
sg400
S'0.3121278'
p1231
sg402
S'0.1890966'
p1232
sg404
S'0.7656012'
p1233
sg406
S'0.8074774'
p1234
sg408
S'0.8619677'
p1235
sg410
S'0.7599446'
p1236
ssg38
g218
sg40
g41
sg7
S'800.0'
p1237
sg43
g413
sba(iDataStore
Experiment
p1238
(dp1239
g16
(dp1240
g392
S'0.4768284'
p1241
sg394
S'0.3956457'
p1242
sg396
S'0.2198009'
p1243
sg398
S'0.6910229'
p1244
sg400
S'0.4633630'
p1245
sg402
S'0.1077332'
p1246
sg404
S'0.6111505'
p1247
sg406
S'0.6190746'
p1248
sg408
S'0.6286063'
p1249
sg410
S'0.6722002'
p1250
ssg38
g218
sg40
g41
sg7
S'850.0'
p1251
sg43
g413
sba(iDataStore
Experiment
p1252
(dp1253
g16
(dp1254
g392
S'0.4367724'
p1255
sg394
S'0.3303212'
p1256
sg396
S'0.1483400'
p1257
sg398
S'0.6404274'
p1258
sg400
S'0.3130161'
p1259
sg402
S'0.1118654'
p1260
sg404
S'0.6721184'
p1261
sg406
S'0.7121735'
p1262
sg408
S'0.7552463'
p1263
sg410
S'0.6523538'
p1264
ssg38
g218
sg40
g41
sg7
S'900.0'
p1265
sg43
g413
sba(iDataStore
Experiment
p1266
(dp1267
g16
(dp1268
g392
S'0.4847003'
p1269
sg394
S'0.3811676'
p1270
sg396
S'0.1128817'
p1271
sg398
S'0.6113299'
p1272
sg400
S'0.3330950'
p1273
sg402
S'0.1164068'
p1274
sg404
S'0.6289104'
p1275
sg406
S'0.7135124'
p1276
sg408
S'0.7976182'
p1277
sg410
S'0.7852974'
p1278
ssg38
g218
sg40
g41
sg7
S'950.0'
p1279
sg43
g413
sba(iDataStore
Experiment
p1280
(dp1281
g16
(dp1282
g392
S'0.5258812'
p1283
sg394
S'0.3700837'
p1284
sg396
S'0.1406588'
p1285
sg398
S'0.6687344'
p1286
sg400
S'0.3590816'
p1287
sg402
S'0.0879682'
p1288
sg404
S'0.7712319'
p1289
sg406
S'0.7878045'
p1290
sg408
S'0.7604233'
p1291
sg410
S'0.6290981'
p1292
ssg38
g218
sg40
g41
sg7
S'1000.0'
p1293
sg43
g413
sbasg38
g218
sg171
Nsg172
(lp1294
g404
ag402
ag400
ag398
ag396
ag394
ag392
ag408
ag406
ag410
asg174
(lp1295
S'Timeseries-Rep2.csv'
p1296
asba(iDataStore
MicroarrayData
p1297
(dp1298
g12
(lp1299
(iDataStore
Experiment
p1300
(dp1301
g16
(dp1302
g392
S'0.3970339'
p1303
sg394
S'0.2432843'
p1304
sg396
S'0.1237001'
p1305
sg398
S'0.7087402'
p1306
sg400
S'0.5393216'
p1307
sg402
S'0.1646974'
p1308
sg404
S'0.7291507'
p1309
sg406
S'0.6285854'
p1310
sg408
S'0.7599215'
p1311
sg410
S'0.6076601'
p1312
ssg38
g218
sg40
g41
sg7
S'0.0'
p1313
sg43
g413
sba(iDataStore
Experiment
p1314
(dp1315
g16
(dp1316
g392
S'0.1468781'
p1317
sg394
S'0.4088945'
p1318
sg396
S'0.1012508'
p1319
sg398
S'0.6874071'
p1320
sg400
S'0.3894485'
p1321
sg402
S'0.1803674'
p1322
sg404
S'0.5109302'
p1323
sg406
S'0.4169359'
p1324
sg408
S'0.3528068'
p1325
sg410
S'0.7657149'
p1326
ssg38
g218
sg40
g41
sg7
S'50.0'
p1327
sg43
g413
sba(iDataStore
Experiment
p1328
(dp1329
g16
(dp1330
g392
S'0.0264118'
p1331
sg394
S'0.4252275'
p1332
sg396
S'0.1486603'
p1333
sg398
S'0.5980135'
p1334
sg400
S'0.2565762'
p1335
sg402
S'0.1875477'
p1336
sg404
S'0.6097374'
p1337
sg406
S'0.4086711'
p1338
sg408
S'0.3565534'
p1339
sg410
S'0.8156564'
p1340
ssg38
g218
sg40
g41
sg7
S'100.0'
p1341
sg43
g413
sba(iDataStore
Experiment
p1342
(dp1343
g16
(dp1344
g392
S'0.0259651'
p1345
sg394
S'0.4733397'
p1346
sg396
S'0.1471183'
p1347
sg398
S'0.4758323'
p1348
sg400
S'0.1696391'
p1349
sg402
S'0.2070564'
p1350
sg404
S'0.7059362'
p1351
sg406
S'0.3558222'
p1352
sg408
S'0.2819844'
p1353
sg410
S'0.7042378'
p1354
ssg38
g218
sg40
g41
sg7
S'150.0'
p1355
sg43
g413
sba(iDataStore
Experiment
p1356
(dp1357
g16
(dp1358
g392
S'0.0067659'
p1359
sg394
S'0.5552323'
p1360
sg396
S'0.1409376'
p1361
sg398
S'0.3854643'
p1362
sg400
S'0.2447503'
p1363
sg402
S'0.2695352'
p1364
sg404
S'0.7791460'
p1365
sg406
S'0.4058957'
p1366
sg408
S'0.1862479'
p1367
sg410
S'0.6916045'
p1368
ssg38
g218
sg40
g41
sg7
S'200.0'
p1369
sg43
g413
sba(iDataStore
Experiment
p1370
(dp1371
g16
(dp1372
g392
S'0.0094517'
p1373
sg394
S'0.4274730'
p1374
sg396
S'0.0985869'
p1375
sg398
S'0.4492310'
p1376
sg400
S'0.1712229'
p1377
sg402
S'0.3182197'
p1378
sg404
S'0.7512179'
p1379
sg406
S'0.3565842'
p1380
sg408
S'0.2538905'
p1381
sg410
S'0.7226358'
p1382
ssg38
g218
sg40
g41
sg7
S'250.0'
p1383
sg43
g413
sba(iDataStore
Experiment
p1384
(dp1385
g16
(dp1386
g392
S'0.0019713'
p1387
sg394
S'0.5281481'
p1388
sg396
S'0.1500982'
p1389
sg398
S'0.3920308'
p1390
sg400
S'0.2081826'
p1391
sg402
S'0.2300156'
p1392
sg404
S'0.6662777'
p1393
sg406
S'0.2789396'
p1394
sg408
S'0.2450673'
p1395
sg410
S'0.8015413'
p1396
ssg38
g218
sg40
g41
sg7
S'300.0'
p1397
sg43
g413
sba(iDataStore
Experiment
p1398
(dp1399
g16
(dp1400
g392
S'0.0114260'
p1401
sg394
S'0.5760348'
p1402
sg396
S'0.1285197'
p1403
sg398
S'0.3937747'
p1404
sg400
S'0.2921507'
p1405
sg402
S'0.2564993'
p1406
sg404
S'0.6446435'
p1407
sg406
S'0.2805749'
p1408
sg408
S'0.1746718'
p1409
sg410
S'0.7041561'
p1410
ssg38
g218
sg40
g41
sg7
S'350.0'
p1411
sg43
g413
sba(iDataStore
Experiment
p1412
(dp1413
g16
(dp1414
g392
S'0.0138563'
p1415
sg394
S'0.5195734'
p1416
sg396
S'0.1167303'
p1417
sg398
S'0.5795062'
p1418
sg400
S'0.1989521'
p1419
sg402
S'0.2767497'
p1420
sg404
S'0.7309197'
p1421
sg406
S'0.3775839'
p1422
sg408
S'0.2548303'
p1423
sg410
S'0.7438145'
p1424
ssg38
g218
sg40
g41
sg7
S'400.0'
p1425
sg43
g413
sba(iDataStore
Experiment
p1426
(dp1427
g16
(dp1428
g392
S'0.0025197'
p1429
sg394
S'0.4616732'
p1430
sg396
S'0.1496491'
p1431
sg398
S'0.3893692'
p1432
sg400
S'0.2291561'
p1433
sg402
S'0.2384708'
p1434
sg404
S'0.7241511'
p1435
sg406
S'0.3453198'
p1436
sg408
S'0.1916132'
p1437
sg410
S'0.7157578'
p1438
ssg38
g218
sg40
g41
sg7
S'450.0'
p1439
sg43
g413
sba(iDataStore
Experiment
p1440
(dp1441
g16
(dp1442
g392
S'0.0070070'
p1443
sg394
S'0.4998435'
p1444
sg396
S'0.1109189'
p1445
sg398
S'0.2895560'
p1446
sg400
S'0.2398097'
p1447
sg402
S'0.2557487'
p1448
sg404
S'0.6861697'
p1449
sg406
S'0.3096857'
p1450
sg408
S'0.1959993'
p1451
sg410
S'0.6144597'
p1452
ssg38
g218
sg40
g41
sg7
S'500.0'
p1453
sg43
g413
sba(iDataStore
Experiment
p1454
(dp1455
g16
(dp1456
g392
S'0.5668736'
p1457
sg394
S'0.4044676'
p1458
sg396
S'0.1082641'
p1459
sg398
S'0.4475400'
p1460
sg400
S'0.2068039'
p1461
sg402
S'0.1897509'
p1462
sg404
S'0.6640881'
p1463
sg406
S'0.6214781'
p1464
sg408
S'0.6426656'
p1465
sg410
S'0.5714713'
p1466
ssg38
g218
sg40
g41
sg7
S'550.0'
p1467
sg43
g413
sba(iDataStore
Experiment
p1468
(dp1469
g16
(dp1470
g392
S'0.5977940'
p1471
sg394
S'0.4860355'
p1472
sg396
S'0.1010354'
p1473
sg398
S'0.5663255'
p1474
sg400
S'0.3196045'
p1475
sg402
S'0.1523764'
p1476
sg404
S'0.6374970'
p1477
sg406
S'0.6409856'
p1478
sg408
S'0.7231546'
p1479
sg410
S'0.6966782'
p1480
ssg38
g218
sg40
g41
sg7
S'600.0'
p1481
sg43
g413
sba(iDataStore
Experiment
p1482
(dp1483
g16
(dp1484
g392
S'0.6950467'
p1485
sg394
S'0.4614339'
p1486
sg396
S'0.1013164'
p1487
sg398
S'0.6595041'
p1488
sg400
S'0.4068650'
p1489
sg402
S'0.1338911'
p1490
sg404
S'0.7156959'
p1491
sg406
S'0.6558541'
p1492
sg408
S'0.7188045'
p1493
sg410
S'0.7758014'
p1494
ssg38
g218
sg40
g41
sg7
S'650.0'
p1495
sg43
g413
sba(iDataStore
Experiment
p1496
(dp1497
g16
(dp1498
g392
S'0.5087046'
p1499
sg394
S'0.3561251'
p1500
sg396
S'0.1462886'
p1501
sg398
S'0.6690486'
p1502
sg400
S'0.4325222'
p1503
sg402
S'0.1458993'
p1504
sg404
S'0.6367377'
p1505
sg406
S'0.7491581'
p1506
sg408
S'0.6382091'
p1507
sg410
S'0.7329435'
p1508
ssg38
g218
sg40
g41
sg7
S'700.0'
p1509
sg43
g413
sba(iDataStore
Experiment
p1510
(dp1511
g16
(dp1512
g392
S'0.4667717'
p1513
sg394
S'0.3473546'
p1514
sg396
S'0.1460243'
p1515
sg398
S'0.5726726'
p1516
sg400
S'0.4342745'
p1517
sg402
S'0.1471605'
p1518
sg404
S'0.6861329'
p1519
sg406
S'0.7790399'
p1520
sg408
S'0.6700589'
p1521
sg410
S'0.7393787'
p1522
ssg38
g218
sg40
g41
sg7
S'750.0'
p1523
sg43
g413
sba(iDataStore
Experiment
p1524
(dp1525
g16
(dp1526
g392
S'0.5446558'
p1527
sg394
S'0.2765572'
p1528
sg396
S'0.1294852'
p1529
sg398
S'0.7432860'
p1530
sg400
S'0.4384850'
p1531
sg402
S'0.1238498'
p1532
sg404
S'0.7440202'
p1533
sg406
S'0.6396986'
p1534
sg408
S'0.7585209'
p1535
sg410
S'0.6684210'
p1536
ssg38
g218
sg40
g41
sg7
S'800.0'
p1537
sg43
g413
sba(iDataStore
Experiment
p1538
(dp1539
g16
(dp1540
g392
S'0.4650374'
p1541
sg394
S'0.3447260'
p1542
sg396
S'0.0999712'
p1543
sg398
S'0.5678651'
p1544
sg400
S'0.4268514'
p1545
sg402
S'0.0662469'
p1546
sg404
S'0.8967149'
p1547
sg406
S'0.6389196'
p1548
sg408
S'0.7023964'
p1549
sg410
S'0.6975826'
p1550
ssg38
g218
sg40
g41
sg7
S'850.0'
p1551
sg43
g413
sba(iDataStore
Experiment
p1552
(dp1553
g16
(dp1554
g392
S'0.4798852'
p1555
sg394
S'0.3897331'
p1556
sg396
S'0.1245277'
p1557
sg398
S'0.6886540'
p1558
sg400
S'0.4127351'
p1559
sg402
S'0.0664624'
p1560
sg404
S'0.7564360'
p1561
sg406
S'0.7970938'
p1562
sg408
S'0.6957703'
p1563
sg410
S'0.6599207'
p1564
ssg38
g218
sg40
g41
sg7
S'900.0'
p1565
sg43
g413
sba(iDataStore
Experiment
p1566
(dp1567
g16
(dp1568
g392
S'0.4785983'
p1569
sg394
S'0.2650917'
p1570
sg396
S'0.0947804'
p1571
sg398
S'0.5188151'
p1572
sg400
S'0.3728141'
p1573
sg402
S'0.0715481'
p1574
sg404
S'0.6792970'
p1575
sg406
S'0.5806831'
p1576
sg408
S'0.7806962'
p1577
sg410
S'0.7913360'
p1578
ssg38
g218
sg40
g41
sg7
S'950.0'
p1579
sg43
g413
sba(iDataStore
Experiment
p1580
(dp1581
g16
(dp1582
g392
S'0.3951515'
p1583
sg394
S'0.3540091'
p1584
sg396
S'0.1239435'
p1585
sg398
S'0.8028182'
p1586
sg400
S'0.3585051'
p1587
sg402
S'0.0930319'
p1588
sg404
S'0.6020569'
p1589
sg406
S'0.7304382'
p1590
sg408
S'0.7849719'
p1591
sg410
S'0.6863379'
p1592
ssg38
g218
sg40
g41
sg7
S'1000.0'
p1593
sg43
g413
sbasg38
g218
sg171
Nsg172
(lp1594
g404
ag402
ag400
ag398
ag396
ag394
ag392
ag408
ag406
ag410
asg174
(lp1595
g413
asbasS'wt_storage'
p1596
(iDataStore
MicroarrayData
p1597
(dp1598
g12
(lp1599
(iDataStore
Experiment
p1600
(dp1601
g16
(dp1602
S'G7'
p1603
S'0.4967330'
p1604
sS'G6'
p1605
S'0.3258775'
p1606
sS'G5'
p1607
S'0.1464854'
p1608
sS'G4'
p1609
S'0.6047832'
p1610
sS'G3'
p1611
S'0.3287936'
p1612
sS'G2'
p1613
S'0.1231706'
p1614
sS'G1'
p1615
S'0.6046824'
p1616
sS'G9'
p1617
S'0.6140849'
p1618
sS'G8'
p1619
S'0.6496271'
p1620
sS'G10'
p1621
S'0.7481792'
p1622
ssg38
g229
sg40
g41
sg7
g42
sg43
g252
sbasg38
g229
sg171
Nsg172
(lp1623
g1615
ag1613
ag1611
ag1609
ag1607
ag1605
ag1603
ag1619
ag1617
ag1621
asg174
(lp1624
S'inSilico_size10_1_wildtype.tsv'
p1625
asbsS'alg_name'
p1626
S'tlclr'
p1627
sS'network'
p1628
(iNetwork
Network
p1629
(dp1630
S'binary'
p1631
I00
sg1628
(dp1632
g392
(dp1633
g392
F0.0
sg394
F0.0
sg396
F0.0103263539837272
sg398
F0.232602612247188
sg400
F1.18783495058242
sg402
F1.18934304757546
sg404
F0.211578162837216
sg406
F1.52265825074289
sg408
F0.523408780562091
sg410
F0.369555934218736
ssg394
(dp1634
g392
F0.176242567218853
sg394
F0.0
sg396
F0.0
sg398
F0.0
sg400
F0.0
sg402
F1.69284268731542
sg404
F0.0
sg406
F0.261560768761379
sg408
F2.1296035269581
sg410
F0.246099514362104
ssg396
(dp1635
g392
F0.292904972110277
sg394
F0.0
sg396
F0.0
sg398
F0.76911217119674
sg400
F0.0
sg402
F0.476939338078334
sg404
F3.42253292974
sg406
F0.0
sg408
F0.0
sg410
F0.0
ssg398
(dp1636
g392
F1.90916370588238
sg394
F0.0
sg396
F0.0422569492106475
sg398
F0.0
sg400
F0.855276819142146
sg402
F0.330236343821829
sg404
F0.10689107139071
sg406
F0.0901685117429207
sg408
F0.552162603642455
sg410
F0.0384465751548777
ssg400
(dp1637
g392
F2.13282769912995
sg394
F0.0
sg396
F0.0
sg398
F0.0
sg400
F0.0
sg402
F0.317072120953665
sg404
F0.137786076334993
sg406
F0.979302572399294
sg408
F0.0593553869059105
sg410
F0.0
ssg402
(dp1638
g392
F1.27375353475652
sg394
F1.53977339890354
sg396
F0.19940316914711
sg398
F0.048662727503014
sg400
F0.373201241982169
sg402
F0.0
sg404
F0.311474096969876
sg406
F1.11751508838608
sg408
F2.23739679763867
sg410
F0.292690326660019
ssg404
(dp1639
g392
F0.936997463324584
sg394
F0.0
sg396
F2.81784893758364
sg398
F0.408831331543434
sg400
F0.0
sg402
F0.774852388925494
sg404
F0.0
sg406
F0.0
sg408
F0.0
sg410
F0.0
ssg406
(dp1640
g392
F1.62777507835298
sg394
F0.0
sg396
F0.0
sg398
F0.0
sg400
F0.421115412021878
sg402
F1.17341758843252
sg404
F0.0
sg406
F0.0
sg408
F0.958439704601807
sg410
F1.75059701381293
ssg408
(dp1641
g392
F0.135098192980508
sg394
F1.27689161391283
sg396
F0.00518908136703301
sg398
F0.0
sg400
F0.0
sg402
F2.26100518994833
sg404
F0.0
sg406
F0.352413096674613
sg408
F0.0
sg410
F0.0901011759615192
ssg410
(dp1642
g392
F0.377586578646711
sg394
F0.0
sg396
F0.0
sg398
F0.61441650596908
sg400
F0.0
sg402
F0.0
sg404
F0.0
sg406
F2.28104984197077
sg408
F0.0
sg410
F0.0
sssS'cutoff'
p1643
I0
sS'signed'
p1644
I00
sS'original_network'
p1645
(lp1646
(lp1647
g42
aS'0.774852388925494'
p1648
ag42
aS'0.408831331543434'
p1649
aS'2.81784893758364'
p1650
ag42
aS'0.936997463324584'
p1651
ag42
ag42
ag42
aa(lp1652
S'0.311474096969876'
p1653
ag42
aS'0.373201241982169'
p1654
aS'0.048662727503014'
p1655
aS'0.19940316914711'
p1656
aS'1.53977339890354'
p1657
aS'1.27375353475652'
p1658
aS'2.23739679763867'
p1659
aS'1.11751508838608'
p1660
aS'0.292690326660019'
p1661
aa(lp1662
S'0.137786076334993'
p1663
aS'0.317072120953665'
p1664
ag42
ag42
ag42
ag42
aS'2.13282769912995'
p1665
aS'0.0593553869059105'
p1666
aS'0.979302572399294'
p1667
ag42
aa(lp1668
S'0.10689107139071'
p1669
aS'0.330236343821829'
p1670
aS'0.855276819142146'
p1671
ag42
aS'0.0422569492106475'
p1672
ag42
aS'1.90916370588238'
p1673
aS'0.552162603642455'
p1674
aS'0.0901685117429207'
p1675
aS'0.0384465751548777'
p1676
aa(lp1677
S'3.42253292974'
p1678
aS'0.476939338078334'
p1679
ag42
aS'0.76911217119674'
p1680
ag42
ag42
aS'0.292904972110277'
p1681
ag42
ag42
ag42
aa(lp1682
g42
aS'1.69284268731542'
p1683
ag42
ag42
ag42
ag42
aS'0.176242567218853'
p1684
aS'2.1296035269581'
p1685
aS'0.261560768761379'
p1686
aS'0.246099514362104'
p1687
aa(lp1688
S'0.211578162837216'
p1689
aS'1.18934304757546'
p1690
aS'1.18783495058242'
p1691
aS'0.232602612247188'
p1692
aS'0.0103263539837272'
p1693
ag42
ag42
aS'0.523408780562091'
p1694
aS'1.52265825074289'
p1695
aS'0.369555934218736'
p1696
aa(lp1697
g42
aS'2.26100518994833'
p1698
ag42
ag42
aS'0.00518908136703301'
p1699
aS'1.27689161391283'
p1700
aS'0.135098192980508'
p1701
ag42
aS'0.352413096674613'
p1702
aS'0.0901011759615192'
p1703
aa(lp1704
g42
aS'1.17341758843252'
p1705
aS'0.421115412021878'
p1706
ag42
ag42
ag42
aS'1.62777507835298'
p1707
aS'0.958439704601807'
p1708
ag42
aS'1.75059701381293'
p1709
aa(lp1710
g42
ag42
ag42
aS'0.61441650596908'
p1711
ag42
ag42
aS'0.377586578646711'
p1712
ag42
aS'2.28104984197077'
p1713
ag42
aasS'thresh'
p1714
I0
sg172
g694
sbsg276
S'/Users/jesse/Workspace/School/MastersThesis/Program/output//TLCLR-DFG4grn-dream410-2011-12-15_01.35.30//TLCLR_All_Data//tlclr_program/'
p1715
sg207
S'/Users/jesse/Workspace/School/MastersThesis/Program/output//TLCLR-DFG4grn-dream410-2011-12-15_01.35.30//TLCLR_All_Data//log/'
p1716
sS'other_storage'
p1717
(iDataStore
MicroarrayData
p1718
(dp1719
g12
(lp1720
(iDataStore
Experiment
p1721
(dp1722
g16
(dp1723
S'G7'
p1724
S'0.6244579'
p1725
sS'G6'
p1726
S'0.3160643'
p1727
sS'G5'
p1728
S'0.3456091'
p1729
sS'G4'
p1730
S'0.6396958'
p1731
sS'G3'
p1732
S'0.3478002'
p1733
sS'G2'
p1734
S'0.0722337'
p1735
sS'G1'
p1736
S'0.3898410'
p1737
sS'G9'
p1738
S'0.6661835'
p1739
sS'G8'
p1740
S'0.6492305'
p1741
sS'G10'
p1742
S'0.6923661'
p1743
ssg38
S'knockdown'
p1744
sg40
g41
sg7
g42
sg43
g309
sba(iDataStore
Experiment
p1745
(dp1746
g16
(dp1747
g1724
S'0.4636410'
p1748
sg1726
S'0.3326363'
p1749
sg1728
S'0.1485260'
p1750
sg1730
S'0.6607454'
p1751
sg1732
S'0.4121334'
p1752
sg1734
S'0.0357751'
p1753
sg1736
S'0.8357763'
p1754
sg1738
S'0.7763790'
p1755
sg1740
S'0.8164285'
p1756
sg1742
S'0.5841345'
p1757
ssg38
g1744
sg40
g41
sg7
g58
sg43
g309
sba(iDataStore
Experiment
p1758
(dp1759
g16
(dp1760
g1724
S'0.5354631'
p1761
sg1726
S'0.2568047'
p1762
sg1728
S'0.1658057'
p1763
sg1730
S'0.7067496'
p1764
sg1732
S'0.2647904'
p1765
sg1734
S'0.0840938'
p1766
sg1736
S'0.6812331'
p1767
sg1738
S'0.6845420'
p1768
sg1740
S'0.7055173'
p1769
sg1742
S'0.7791802'
p1770
ssg38
g1744
sg40
g41
sg7
g72
sg43
g309
sba(iDataStore
Experiment
p1771
(dp1772
g16
(dp1773
g1724
S'0.4754313'
p1774
sg1726
S'0.2900926'
p1775
sg1728
S'0.0742647'
p1776
sg1730
S'0.4466983'
p1777
sg1732
S'0.4119282'
p1778
sg1734
S'0.0607266'
p1779
sg1736
S'0.6802011'
p1780
sg1738
S'0.6775331'
p1781
sg1740
S'0.5998749'
p1782
sg1742
S'0.7786995'
p1783
ssg38
g1744
sg40
g41
sg7
g86
sg43
g309
sba(iDataStore
Experiment
p1784
(dp1785
g16
(dp1786
g1724
S'0.4780143'
p1787
sg1726
S'0.2532243'
p1788
sg1728
S'0.1224172'
p1789
sg1730
S'0.7210109'
p1790
sg1732
S'0.4103195'
p1791
sg1734
S'0.0750232'
p1792
sg1736
S'0.6363000'
p1793
sg1738
S'0.6573481'
p1794
sg1740
S'0.6185092'
p1795
sg1742
S'0.6908296'
p1796
ssg38
g1744
sg40
g41
sg7
g100
sg43
g309
sba(iDataStore
Experiment
p1797
(dp1798
g16
(dp1799
g1724
S'0.5961106'
p1800
sg1726
S'0.1630253'
p1801
sg1728
S'0.1544049'
p1802
sg1730
S'0.6523474'
p1803
sg1732
S'0.3249278'
p1804
sg1734
S'0.1150666'
p1805
sg1736
S'0.6742165'
p1806
sg1738
S'0.7959911'
p1807
sg1740
S'0.7112882'
p1808
sg1742
S'0.6985576'
p1809
ssg38
g1744
sg40
g41
sg7
g114
sg43
g309
sba(iDataStore
Experiment
p1810
(dp1811
g16
(dp1812
g1724
S'0.3586357'
p1813
sg1726
S'0.2745215'
p1814
sg1728
S'0.1092644'
p1815
sg1730
S'0.5218381'
p1816
sg1732
S'0.2482135'
p1817
sg1734
S'0.1163645'
p1818
sg1736
S'0.7705951'
p1819
sg1738
S'0.6551592'
p1820
sg1740
S'0.6390914'
p1821
sg1742
S'0.6830314'
p1822
ssg38
g1744
sg40
g41
sg7
g128
sg43
g309
sba(iDataStore
Experiment
p1823
(dp1824
g16
(dp1825
g1724
S'0.4134679'
p1826
sg1726
S'0.5216254'
p1827
sg1728
S'0.1001786'
p1828
sg1730
S'0.6765084'
p1829
sg1732
S'0.5012037'
p1830
sg1734
S'0.1783586'
p1831
sg1736
S'0.8163943'
p1832
sg1738
S'0.6653574'
p1833
sg1740
S'0.3217026'
p1834
sg1742
S'0.6734377'
p1835
ssg38
g1744
sg40
g41
sg7
g142
sg43
g309
sba(iDataStore
Experiment
p1836
(dp1837
g16
(dp1838
g1724
S'0.6016538'
p1839
sg1726
S'0.2276353'
p1840
sg1728
S'0.1153215'
p1841
sg1730
S'0.7156928'
p1842
sg1732
S'0.4137001'
p1843
sg1734
S'0.1089892'
p1844
sg1736
S'0.7477993'
p1845
sg1738
S'0.4156160'
p1846
sg1740
S'0.7493981'
p1847
sg1742
S'0.6208126'
p1848
ssg38
g1744
sg40
g41
sg7
g156
sg43
g309
sba(iDataStore
Experiment
p1849
(dp1850
g16
(dp1851
g1724
S'0.6386655'
p1852
sg1726
S'0.3004501'
p1853
sg1728
S'0.0827235'
p1854
sg1730
S'0.7476172'
p1855
sg1732
S'0.4537613'
p1856
sg1734
S'0.1386172'
p1857
sg1736
S'0.6891057'
p1858
sg1738
S'0.8119234'
p1859
sg1740
S'0.6910927'
p1860
sg1742
S'0.2645752'
p1861
ssg38
g1744
sg40
g41
sg7
g170
sg43
g309
sbasg38
g1744
sg171
Nsg172
(lp1862
g1736
ag1734
ag1732
ag1730
ag1728
ag1726
ag1724
ag1740
ag1738
ag1742
asg174
(lp1863
S'inSilico_size10_1_knockdowns.tsv'
p1864
asbsg172
g694
sS'cwd'
p1865
g1715
sg211
S'/Users/jesse/Workspace/School/MastersThesis/Program/output//TLCLR-DFG4grn-dream410-2011-12-15_01.35.30//TLCLR_All_Data/'
p1866
sb.