((lp0
(iJobManager
Job
p1
(dp2
S'status'
p3
S'Finished.'
p4
sS'alg'
p5
(inir
NIR
p6
(dp7
S'exp_data'
p8
NsS'data_dir'
p9
S'/Users/jesse/Workspace/School/MastersThesis/Program/output//NIR_RestK-dream410-2011-12-16_23.28.13//NIR_RestK-4//data/'
p10
sS'name'
p11
S'NIR_RestK-4'
p12
sS'settings'
p13
(dp14
S'inferelator'
p15
(dp16
S'datafiles'
p17
S'data/waffles.txt data/testing.txt'
p18
ssS'genie3'
p19
(dp20
S'config'
p21
S'config/genie3_testing.cfg'
p22
ssS'cmonkey'
p23
(dp24
S'config'
p25
S'config/cmonkey_testing.cfg'
p26
ssS'tlclr'
p27
(dp28
S'config'
p29
S'config/tlclr_testing.cfg'
p30
ssS'global'
p31
(dp32
S'matlab_path'
p33
S'matlab'
p34
sS'medium2_network_goldnet_file'
p35
S'datasets/20Gene_Network2/Ecoli-20Genes-6Reg-3_goldstandard.tsv'
p36
sS'dream4100_network_knockdown_file'
p37
S'datasets/DREAM4_InSilico_Size100/insilico_size100_1/insilico_size100_1_knockdowns.tsv'
p38
sS'medium2_network_delta_t'
p39
I50
sS'large_network_knockdown_file'
p40
S'datasets/Large_Network/Ecoli-1_knockdowns.tsv'
p41
sS'dream410_network_delta_t'
p42
I50
sS'n_processors'
p43
I3
sS'large_network_timeseries_file'
p44
S'datasets/Large_Network/Ecoli-1_dream4_timeseries.tsv'
p45
sS'dream410_network_wildtype_file'
p46
S'datasets/DREAM4_InSilico_Size10/insilico_size10_1/insilico_size10_1_wildtype.tsv'
p47
sS'medium2_network_timeseries_file'
p48
S'datasets/20Gene_Network2/Ecoli-20Genes-6Reg-3_dream4_timeseries.tsv'
p49
sS'time_series_delta_t'
p50
I50
sS'small_network_wildtype_file'
p51
S'datasets/Small_Network/Ecoli-1_wildtype.tsv'
p52
sS'medium_network_goldnet_file'
p53
S'datasets/20Gene_Network/Ecoli-20Genes-6Reg-2_goldstandard.tsv'
p54
sS'medium_network_timeseries_file'
p55
S'datasets/20Gene_Network/Ecoli-20Genes-6Reg-2_dream4_timeseries.tsv'
p56
sS'dream410_network_goldnet_file'
p57
S'datasets/DREAM4_InSilico_Size10/insilico_size10_1/DREAM4_GoldStandard_InSilico_Size10_1.tsv'
p58
sS'medium_network_wildtype_file'
p59
S'datasets/20Gene_Network/Ecoli-20Genes-6Reg-2_wildtype.tsv'
p60
sS'medium2_network_multifactorial_file'
p61
S'datasets/20Gene_Network2/Ecoli-20Genes-6Reg-3_multifactorial.tsv'
p62
sS'dream4100_network_goldnet_file'
p63
S'datasets/DREAM4_InSilico_Size100/insilico_size100_1/DREAM4_GoldStandard_InSilico_Size100_1.tsv'
p64
sS'dream4100_network_knockout_file'
p65
S'datasets/DREAM4_InSilico_Size100/insilico_size100_1/insilico_size100_1_knockouts.tsv'
p66
sS'large_network_goldnet_file'
p67
S'datasets/Large_Network/Ecoli-1_goldstandard.tsv'
p68
sS'large_network_knockout_file'
p69
S'datasets/Large_Network/Ecoli-1_knockouts.tsv'
p70
sS'working_dir'
p71
S'/Users/jesse/Workspace/School/MastersThesis/Program/'
p72
sS'small_network_multifactorial_file'
p73
S'datasets/Small_Network/Ecoli-1_multifactorial.tsv'
p74
sS'output_dir'
p75
S'output//NIR_RestK-dream410-2011-12-16_23.28.13/'
p76
sS'medium2_network_knockdown_file'
p77
S'datasets/20Gene_Network2/Ecoli-20Genes-6Reg-3_knockdowns.tsv'
p78
sS'medium_network_multifactorial_file'
p79
S'datasets/20Gene_Network/Ecoli-20Genes-6Reg-2_multifactorial.tsv'
p80
sS'log_dir'
p81
S'output/logs/'
p82
sS'dream4100_network_delta_t'
p83
I50
sS'steady_state_files'
p84
S'550ath.ratios.fix'
p85
sS'small_network_goldnet_file'
p86
S'datasets/Small_Network/Ecoli-1_goldstandard.tsv'
p87
sS'tflist'
p88
S'ArabGeneTFNames.csv'
p89
sS'dream4100_network_wildtype_file'
p90
S'datasets/DREAM4_InSilico_Size100/insilico_size100_1/insilico_size100_1_wildtype.tsv'
p91
sS'use_cluster'
p92
S'False'
p93
sS'medium_network_delta_t'
p94
I50
sS'time_series_files'
p95
S'datasets/dream4_10/dream4_ts.tsv'
p96
sS'small_network_delta_t'
p97
I30
sS'small_network_timeseries_file'
p98
S'datasets/Small_Network/Ecoli-1_dream4_timeseries.tsv'
p99
sS'large_network_delta_t'
p100
I30
sS'medium2_network_wildtype_file'
p101
S'datasets/20Gene_Network2/Ecoli-20Genes-6Reg-3_wildtype.tsv'
p102
sS'dream410_network_knockdown_file'
p103
S'datasets/DREAM4_InSilico_Size10/insilico_size10_1/insilico_size10_1_knockdowns.tsv'
p104
sS'dream4100_network_timeseries_file'
p105
S'datasets/DREAM4_InSilico_Size100/insilico_size100_1/insilico_size100_1_timeseries.tsv'
p106
sS'dream410_network_timeseries_file'
p107
S'datasets/DREAM4_InSilico_Size10/insilico_size10_1/insilico_size10_1_timeseries.tsv'
p108
sS'template_dir'
p109
S'config/templates/'
p110
sS'medium_network_knockout_file'
p111
S'datasets/20Gene_Network/Ecoli-20Genes-6Reg-2_knockouts.tsv'
p112
sS'large_network_multifactorial_file'
p113
S'datasets/Large_Network/Ecoli-1_multifactorial.tsv'
p114
sS'dream4100_network_multifactorial_file'
p115
S'datasets/DREAM4_InSilico_Size100/insilico_size100_1/insilico_size100_1_multifactorial.tsv'
p116
sS'large_network_wildtype_file'
p117
S'datasets/Large_Network/Ecoli-1_wildtype.tsv'
p118
sS'experiment_name'
p119
S'NIR_RestK-dream410'
p120
sS'small_network_knockdown_file'
p121
S'datasets/Small_Network/Ecoli-1_knockdowns.tsv'
p122
sS'dream410_network_knockout_file'
p123
S'datasets/DREAM4_InSilico_Size10/insilico_size10_1/insilico_size10_1_knockouts.tsv'
p124
sS'dream410_network_multifactorial_file'
p125
S'datasets/DREAM4_InSilico_Size10/insilico_size10_1/insilico_size10_1_multifactorial.tsv'
p126
sS'small_network_knockout_file'
p127
S'datasets/Small_Network/Ecoli-1_knockouts.tsv'
p128
sS'medium2_network_knockout_file'
p129
S'datasets/20Gene_Network2/Ecoli-20Genes-6Reg-3_knockouts.tsv'
p130
sS'medium_network_knockdown_file'
p131
S'datasets/20Gene_Network/Ecoli-20Genes-6Reg-2_knockdowns.tsv'
p132
ssS'mcz'
p133
(dp134
S'config'
p135
S'config/mcz_testing.cfg'
p136
ssS'nir'
p137
(dp138
g9
S'/Users/jesse/Workspace/School/MastersThesis/Program/output//NIR_RestK-dream410-2011-12-16_23.28.13//NIR_RestK-5//data/'
p139
sg11
S'NIR_RestK-5'
p140
sS'working_dir_config'
p141
S'/Users/jesse/Workspace/School/MastersThesis/Program/output//NIR_RestK-dream410-2011-12-16_23.28.13//NIR_RestK-5//nir_program/run_nir.m'
p142
sS'settings_file'
p143
S'/Users/jesse/Workspace/School/MastersThesis/Program/output//NIR_RestK-dream410-2011-12-16_23.28.13//NIR_RestK-5//nir_settings.m'
p144
sS'restk'
p145
I5
sS'output_dir'
p146
S'/Users/jesse/Workspace/School/MastersThesis/Program/output//NIR_RestK-dream410-2011-12-16_23.28.13//NIR_RestK-5/'
p147
sS'path'
p148
S'algorithms/nir/'
p149
sS'file_ext'
p150
S'm'
p151
sS'topd'
p152
I5
sS'config'
p153
S'config/nir_testing.cfg'
p154
sS'ratio_files'
p155
S'/Users/jesse/Workspace/School/MastersThesis/Program/output//NIR_RestK-dream410-2011-12-16_23.28.13//NIR_RestK-5//data//insilico_size10_1_knockouts.tsv'
p156
sS'log_dir'
p157
S'/Users/jesse/Workspace/School/MastersThesis/Program/output//NIR_RestK-dream410-2011-12-16_23.28.13//NIR_RestK-5//log/'
p158
ssS'banjo'
p159
(dp160
S'num_genes'
p161
I10
sS'config'
p162
S'config/banjo_testing.cfg'
p163
ssS'dfg4grn'
p164
(dp165
S'cluster_expname'
p166
S'testing'
p167
sS'tau'
p168
I10
sS'lambda_w'
p169
I2
sS'cluster_nodes'
p170
I1
sS'cluster_email'
p171
S'jml654@nyu.edu'
p172
sS'tau_range'
p173
(lp174
I1
aI3
asS'eta_z_range'
p175
(lp176
F0.0001
aF0.1
asS'eta_z'
p177
I3
sS'lambda_w_range'
p178
(lp179
F0.001
aF0.2
asS'cluster_priority'
p180
I1
sS'path'
p181
S'algorithms/dfg4grn/'
p182
sS'cluster_procs'
p183
I1
sS'config'
p184
S'config/dfg4grn_testing.cfg'
p185
sS'cluster_username'
p186
S'jml654'
p187
ssS'nirest'
p188
(dp189
S'ratio_files'
p190
S'datasets/dream4_10/dream4_ts.tsv'
p191
sS'config'
p192
S'config/nirest_testing.cfg'
p193
sssS'cmd'
p194
S'matlab -nodesktop -nodisplay -nosplash -r "addpath(genpath(\'./\'));try;run_nir, catch err, err ,end, exit"'
p195
sS'alg_name'
p196
S'nir'
p197
sS'network'
p198
(iNetwork
Network
p199
(dp200
S'binary'
p201
I00
sg198
(dp202
S'G7'
p203
(dp204
g203
F0.835766
sS'G6'
p205
F0.371055
sS'G5'
p206
F0.0
sS'G4'
p207
F0.258573
sS'G3'
p208
F0.0
sS'G2'
p209
F0.0
sS'G1'
p210
F0.0
sS'G9'
p211
F0.0
sS'G8'
p212
F0.452264
sS'G10'
p213
F0.0
ssg205
(dp214
g203
F0.0
sg205
F0.983786
sg206
F0.0
sg207
F0.406662
sg208
F0.0
sg209
F0.786795
sg210
F0.159466
sg211
F0.0
sg212
F0.0
sg213
F0.0
ssg206
(dp215
g203
F0.193086
sg205
F0.0
sg206
F0.455071
sg207
F0.0
sg208
F0.0
sg209
F0.0
sg210
F0.0
sg211
F0.107036
sg212
F0.0
sg213
F0.275649
ssg207
(dp216
g203
F0.0
sg205
F0.0
sg206
F0.0
sg207
F0.923964
sg208
F0.562361
sg209
F0.0
sg210
F0.220062
sg211
F0.0
sg212
F0.0
sg213
F0.244201
ssg208
(dp217
g203
F0.0
sg205
F0.0
sg206
F0.0
sg207
F0.0
sg208
F1.084437
sg209
F0.0
sg210
F0.29062
sg211
F0.0
sg212
F0.22595
sg213
F0.237147
ssg209
(dp218
g203
F0.0
sg205
F0.0
sg206
F0.194416
sg207
F0.412678
sg208
F0.0
sg209
F1.073391
sg210
F0.0
sg211
F0.0
sg212
F0.0
sg213
F0.164656
ssg210
(dp219
g203
F0.184176
sg205
F0.0
sg206
F0.797205
sg207
F0.0
sg208
F0.0
sg209
F0.0
sg210
F0.300375
sg211
F0.0
sg212
F0.0
sg213
F0.119831
ssg211
(dp220
g203
F0.0
sg205
F0.0
sg206
F0.0
sg207
F0.401725
sg208
F0.0
sg209
F0.0
sg210
F0.347982
sg211
F0.88574
sg212
F0.398264
sg213
F0.0
ssg212
(dp221
g203
F0.0
sg205
F0.753563
sg206
F0.0
sg207
F0.0
sg208
F0.0
sg209
F0.510982
sg210
F0.219267
sg211
F0.0
sg212
F0.637118
sg213
F0.0
ssg213
(dp222
g203
F0.154584
sg205
F0.0
sg206
F0.0
sg207
F0.0
sg208
F0.320825
sg209
F0.0
sg210
F0.0
sg211
F0.707308
sg212
F0.0
sg213
F0.926592
sssS'cutoff'
p223
I0
sS'signed'
p224
I00
sS'original_network'
p225
(lp226
(lp227
S'0.300375'
p228
aS'0.000000'
p229
aS'0.000000'
p230
aS'0.000000'
p231
aS'-0.797205'
p232
aS'0.000000'
p233
aS'-0.184176'
p234
aS'0.000000'
p235
aS'0.000000'
p236
aS'-0.119831'
p237
aa(lp238
S'0.000000'
p239
aS'1.073391'
p240
aS'0.000000'
p241
aS'-0.412678'
p242
aS'-0.194416'
p243
aS'0.000000'
p244
aS'0.000000'
p245
aS'0.000000'
p246
aS'0.000000'
p247
aS'-0.164656'
p248
aa(lp249
S'-0.290620'
p250
aS'0.000000'
p251
aS'1.084437'
p252
aS'0.000000'
p253
aS'0.000000'
p254
aS'0.000000'
p255
aS'0.000000'
p256
aS'-0.225950'
p257
aS'0.000000'
p258
aS'-0.237147'
p259
aa(lp260
S'-0.220062'
p261
aS'0.000000'
p262
aS'-0.562361'
p263
aS'0.923964'
p264
aS'0.000000'
p265
aS'0.000000'
p266
aS'0.000000'
p267
aS'0.000000'
p268
aS'0.000000'
p269
aS'-0.244201'
p270
aa(lp271
S'0.000000'
p272
aS'0.000000'
p273
aS'0.000000'
p274
aS'0.000000'
p275
aS'0.455071'
p276
aS'0.000000'
p277
aS'-0.193086'
p278
aS'0.000000'
p279
aS'0.107036'
p280
aS'-0.275649'
p281
aa(lp282
S'-0.159466'
p283
aS'-0.786795'
p284
aS'0.000000'
p285
aS'-0.406662'
p286
aS'0.000000'
p287
aS'0.983786'
p288
aS'0.000000'
p289
aS'0.000000'
p290
aS'0.000000'
p291
aS'0.000000'
p292
aa(lp293
S'0.000000'
p294
aS'0.000000'
p295
aS'0.000000'
p296
aS'-0.258573'
p297
aS'0.000000'
p298
aS'-0.371055'
p299
aS'0.835766'
p300
aS'-0.452264'
p301
aS'0.000000'
p302
aS'0.000000'
p303
aa(lp304
S'-0.219267'
p305
aS'-0.510982'
p306
aS'0.000000'
p307
aS'0.000000'
p308
aS'0.000000'
p309
aS'-0.753563'
p310
aS'0.000000'
p311
aS'0.637118'
p312
aS'0.000000'
p313
aS'0.000000'
p314
aa(lp315
S'-0.347982'
p316
aS'0.000000'
p317
aS'0.000000'
p318
aS'-0.401725'
p319
aS'0.000000'
p320
aS'0.000000'
p321
aS'0.000000'
p322
aS'-0.398264'
p323
aS'0.885740'
p324
aS'0.000000'
p325
aa(lp326
S'0.000000'
p327
aS'0.000000'
p328
aS'-0.320825'
p329
aS'0.000000'
p330
aS'0.000000'
p331
aS'0.000000'
p332
aS'-0.154584'
p333
aS'0.000000'
p334
aS'-0.707308'
p335
aS'0.926592'
p336
aasS'thresh'
p337
I0
sS'gene_list'
p338
(lp339
g210
ag209
ag208
ag207
ag206
ag205
ag203
ag212
ag211
ag213
asbsg71
S'/Users/jesse/Workspace/School/MastersThesis/Program/output//NIR_RestK-dream410-2011-12-16_23.28.13//NIR_RestK-4//nir_program/'
p340
sg146
S'/Users/jesse/Workspace/School/MastersThesis/Program/output//NIR_RestK-dream410-2011-12-16_23.28.13//NIR_RestK-4/'
p341
sg338
g339
sS'cwd'
p342
g340
sS'data_storage'
p343
(iDataStore
MicroarrayData
p344
(dp345
S'experiments'
p346
(lp347
(iDataStore
Experiment
p348
(dp349
S'ratios'
p350
(dp351
g203
S'0.8300751'
p352
sg205
S'0.3751750'
p353
sg206
S'0.8043362'
p354
sg207
S'0.3623740'
p355
sg208
S'0.2643345'
p356
sg209
S'0.3726836'
p357
sg210
S'0.0000000'
p358
sg211
S'0.6211513'
p359
sg212
S'0.7745205'
p360
sg213
S'0.7196954'
p361
ssS'type'
p362
S'knockout'
p363
sS'tfs'
p364
(lp365
sg11
S'0'
p366
sS'file'
p367
g124
sba(iDataStore
Experiment
p368
(dp369
g350
(dp370
g203
S'0.5208251'
p371
sg205
S'0.3396784'
p372
sg206
S'0.1510230'
p373
sg207
S'0.6002870'
p374
sg208
S'0.3771581'
p375
sg209
S'0.0000000'
p376
sg210
S'0.7331094'
p377
sg211
S'0.7350115'
p378
sg212
S'0.6787224'
p379
sg213
S'0.7922641'
p380
ssg362
g363
sg364
g365
sg11
S'1'
p381
sg367
g124
sba(iDataStore
Experiment
p382
(dp383
g350
(dp384
g203
S'0.6641803'
p385
sg205
S'0.4025691'
p386
sg206
S'0.0791767'
p387
sg207
S'0.3730533'
p388
sg208
S'0.0000000'
p389
sg209
S'0.1391272'
p390
sg210
S'0.7070529'
p391
sg211
S'0.7220312'
p392
sg212
S'0.8045297'
p393
sg213
S'0.6658928'
p394
ssg362
g363
sg364
g365
sg11
S'2'
p395
sg367
g124
sba(iDataStore
Experiment
p396
(dp397
g350
(dp398
g203
S'0.1099868'
p399
sg205
S'0.2836348'
p400
sg206
S'0.1489169'
p401
sg207
S'0.0000000'
p402
sg208
S'0.6167796'
p403
sg209
S'0.1071007'
p404
sg210
S'0.8450825'
p405
sg211
S'0.5874284'
p406
sg212
S'0.6342242'
p407
sg213
S'0.7160394'
p408
ssg362
g363
sg364
g365
sg11
S'3'
p409
sg367
g124
sba(iDataStore
Experiment
p410
(dp411
g350
(dp412
g203
S'0.5416993'
p413
sg205
S'0.3271487'
p414
sg206
S'0.0000000'
p415
sg207
S'0.5616994'
p416
sg208
S'0.4261411'
p417
sg209
S'0.1364529'
p418
sg210
S'0.8780137'
p419
sg211
S'0.7343038'
p420
sg212
S'0.5681723'
p421
sg213
S'0.7933364'
p422
ssg362
g363
sg364
g365
sg11
S'4'
p423
sg367
g124
sba(iDataStore
Experiment
p424
(dp425
g350
(dp426
g203
S'0.4606635'
p427
sg205
S'0.0000000'
p428
sg206
S'0.0947163'
p429
sg207
S'0.6272800'
p430
sg208
S'0.4614097'
p431
sg209
S'0.3975987'
p432
sg210
S'0.6164494'
p433
sg211
S'0.7374282'
p434
sg212
S'0.5924707'
p435
sg213
S'0.7962721'
p436
ssg362
g363
sg364
g365
sg11
S'5'
p437
sg367
g124
sba(iDataStore
Experiment
p438
(dp439
g350
(dp440
g203
S'0.0000000'
p441
sg205
S'0.3024242'
p442
sg206
S'0.0843933'
p443
sg207
S'0.2712395'
p444
sg208
S'0.3150332'
p445
sg209
S'0.0855962'
p446
sg210
S'0.6906661'
p447
sg211
S'0.8041040'
p448
sg212
S'0.7503346'
p449
sg213
S'0.6355293'
p450
ssg362
g363
sg364
g365
sg11
S'6'
p451
sg367
g124
sba(iDataStore
Experiment
p452
(dp453
g350
(dp454
g203
S'0.5464286'
p455
sg205
S'0.6322827'
p456
sg206
S'0.1194226'
p457
sg207
S'0.6637898'
p458
sg208
S'0.3753798'
p459
sg209
S'0.2786197'
p460
sg210
S'0.7996258'
p461
sg211
S'0.7722994'
p462
sg212
S'0.0000000'
p463
sg213
S'0.6917469'
p464
ssg362
g363
sg364
g365
sg11
S'7'
p465
sg367
g124
sba(iDataStore
Experiment
p466
(dp467
g350
(dp468
g203
S'0.6929004'
p469
sg205
S'0.2983418'
p470
sg206
S'0.1357722'
p471
sg207
S'0.3983948'
p472
sg208
S'0.2351013'
p473
sg209
S'0.1223010'
p474
sg210
S'0.7928387'
p475
sg211
S'0.0000000'
p476
sg212
S'0.7674369'
p477
sg213
S'0.0362879'
p478
ssg362
g363
sg364
g365
sg11
S'8'
p479
sg367
g124
sba(iDataStore
Experiment
p480
(dp481
g350
(dp482
g203
S'0.6154742'
p483
sg205
S'0.3397100'
p484
sg206
S'0.1241278'
p485
sg207
S'0.3636434'
p486
sg208
S'0.4215866'
p487
sg209
S'0.1399857'
p488
sg210
S'0.7939821'
p489
sg211
S'0.7247379'
p490
sg212
S'0.6776090'
p491
sg213
S'0.0000000'
p492
ssg362
g363
sg364
g365
sg11
S'9'
p493
sg367
g124
sbasg362
g363
sS'timeseries_num'
p494
Nsg338
g339
sS'input_files'
p495
(lp496
S'insilico_size10_1_knockouts.tsv'
p497
asbsg157
S'/Users/jesse/Workspace/School/MastersThesis/Program/output//NIR_RestK-dream410-2011-12-16_23.28.13//NIR_RestK-4//log/'
p498
sbsS'id'
p499
I1
sg13
g14
sba(iJobManager
Job
p500
(dp501
g3
g4
sg5
(inir
NIR
p502
(dp503
g8
Nsg9
S'/Users/jesse/Workspace/School/MastersThesis/Program/output//NIR_RestK-dream410-2011-12-16_23.28.13//NIR_RestK-3//data/'
p504
sg11
S'NIR_RestK-3'
p505
sg13
g14
sg194
g195
sg196
g197
sg198
(iNetwork
Network
p506
(dp507
g201
I00
sg198
(dp508
g203
(dp509
g203
F0.70777
sg205
F0.452918
sg206
F0.0
sg207
F0.0
sg208
F0.0
sg209
F0.0
sg210
F0.0
sg211
F0.0
sg212
F0.468645
sg213
F0.0
ssg205
(dp510
g203
F0.0
sg205
F0.840847
sg206
F0.0
sg207
F0.534536
sg208
F0.0
sg209
F0.754784
sg210
F0.0
sg211
F0.0
sg212
F0.0
sg213
F0.0
ssg206
(dp511
g203
F0.155546
sg205
F0.0
sg206
F0.437783
sg207
F0.0
sg208
F0.0
sg209
F0.0
sg210
F0.0
sg211
F0.0
sg212
F0.0
sg213
F0.192913
ssg207
(dp512
g203
F0.0
sg205
F0.0
sg206
F0.0
sg207
F0.788776
sg208
F0.769747
sg209
F0.0
sg210
F0.0
sg211
F0.0
sg212
F0.0
sg213
F0.259342
ssg208
(dp513
g203
F0.0
sg205
F0.0
sg206
F0.0
sg207
F0.0
sg208
F1.061157
sg209
F0.0
sg210
F0.320998
sg211
F0.370679
sg212
F0.0
sg213
F0.0
ssg209
(dp514
g203
F0.0
sg205
F0.0
sg206
F0.250645
sg207
F0.560699
sg208
F0.0
sg209
F1.007571
sg210
F0.0
sg211
F0.0
sg212
F0.0
sg213
F0.0
ssg210
(dp515
g203
F0.0
sg205
F0.0
sg206
F0.954643
sg207
F0.0
sg208
F0.0
sg209
F0.235178
sg210
F0.171843
sg211
F0.0
sg212
F0.0
sg213
F0.0
ssg211
(dp516
g203
F0.0
sg205
F0.0
sg206
F0.553804
sg207
F0.0
sg208
F0.0
sg209
F0.0
sg210
F0.72627
sg211
F0.798157
sg212
F0.0
sg213
F0.0
ssg212
(dp517
g203
F0.0
sg205
F0.952025
sg206
F0.0
sg207
F0.0
sg208
F0.0
sg209
F0.500311
sg210
F0.0
sg211
F0.0
sg212
F0.516891
sg213
F0.0
ssg213
(dp518
g203
F0.0
sg205
F0.0
sg206
F0.0
sg207
F0.0
sg208
F0.344207
sg209
F0.0
sg210
F0.0
sg211
F0.785348
sg212
F0.0
sg213
F0.915237
sssg223
I0
sg224
I00
sg225
(lp519
(lp520
S'0.171843'
p521
aS'-0.235178'
p522
aS'0.000000'
p523
aS'0.000000'
p524
aS'-0.954643'
p525
aS'0.000000'
p526
aS'0.000000'
p527
aS'0.000000'
p528
aS'0.000000'
p529
aS'0.000000'
p530
aa(lp531
S'0.000000'
p532
aS'1.007571'
p533
aS'0.000000'
p534
aS'-0.560699'
p535
aS'-0.250645'
p536
aS'0.000000'
p537
aS'0.000000'
p538
aS'0.000000'
p539
aS'0.000000'
p540
aS'0.000000'
p541
aa(lp542
S'-0.320998'
p543
aS'0.000000'
p544
aS'1.061157'
p545
aS'0.000000'
p546
aS'0.000000'
p547
aS'0.000000'
p548
aS'0.000000'
p549
aS'0.000000'
p550
aS'-0.370679'
p551
aS'0.000000'
p552
aa(lp553
S'0.000000'
p554
aS'0.000000'
p555
aS'-0.769747'
p556
aS'0.788776'
p557
aS'0.000000'
p558
aS'0.000000'
p559
aS'0.000000'
p560
aS'0.000000'
p561
aS'0.000000'
p562
aS'-0.259342'
p563
aa(lp564
S'0.000000'
p565
aS'0.000000'
p566
aS'0.000000'
p567
aS'0.000000'
p568
aS'0.437783'
p569
aS'0.000000'
p570
aS'-0.155546'
p571
aS'0.000000'
p572
aS'0.000000'
p573
aS'-0.192913'
p574
aa(lp575
S'0.000000'
p576
aS'-0.754784'
p577
aS'0.000000'
p578
aS'-0.534536'
p579
aS'0.000000'
p580
aS'0.840847'
p581
aS'0.000000'
p582
aS'0.000000'
p583
aS'0.000000'
p584
aS'0.000000'
p585
aa(lp586
S'0.000000'
p587
aS'0.000000'
p588
aS'0.000000'
p589
aS'0.000000'
p590
aS'0.000000'
p591
aS'-0.452918'
p592
aS'0.707770'
p593
aS'-0.468645'
p594
aS'0.000000'
p595
aS'0.000000'
p596
aa(lp597
S'0.000000'
p598
aS'-0.500311'
p599
aS'0.000000'
p600
aS'0.000000'
p601
aS'0.000000'
p602
aS'-0.952025'
p603
aS'0.000000'
p604
aS'0.516891'
p605
aS'0.000000'
p606
aS'0.000000'
p607
aa(lp608
S'-0.726270'
p609
aS'0.000000'
p610
aS'0.000000'
p611
aS'0.000000'
p612
aS'-0.553804'
p613
aS'0.000000'
p614
aS'0.000000'
p615
aS'0.000000'
p616
aS'0.798157'
p617
aS'0.000000'
p618
aa(lp619
S'0.000000'
p620
aS'0.000000'
p621
aS'-0.344207'
p622
aS'0.000000'
p623
aS'0.000000'
p624
aS'0.000000'
p625
aS'0.000000'
p626
aS'0.000000'
p627
aS'-0.785348'
p628
aS'0.915237'
p629
aasg337
I0
sg338
g339
sbsg71
S'/Users/jesse/Workspace/School/MastersThesis/Program/output//NIR_RestK-dream410-2011-12-16_23.28.13//NIR_RestK-3//nir_program/'
p630
sg146
S'/Users/jesse/Workspace/School/MastersThesis/Program/output//NIR_RestK-dream410-2011-12-16_23.28.13//NIR_RestK-3/'
p631
sg338
g339
sg342
g630
sg343
g344
sg157
S'/Users/jesse/Workspace/School/MastersThesis/Program/output//NIR_RestK-dream410-2011-12-16_23.28.13//NIR_RestK-3//log/'
p632
sbsg499
I0
sg13
g14
sba(iJobManager
Job
p633
(dp634
g3
g4
sg5
(inir
NIR
p635
(dp636
g8
Nsg9
g139
sg11
g140
sg13
g14
sg194
g195
sg196
g197
sg198
(iNetwork
Network
p637
(dp638
g201
I00
sg198
(dp639
g203
(dp640
g203
F0.896255
sg205
F0.473044
sg206
F0.0
sg207
F0.35734
sg208
F0.0
sg209
F0.0
sg210
F0.140108
sg211
F0.0
sg212
F0.526617
sg213
F0.0
ssg205
(dp641
g203
F0.124076
sg205
F0.921665
sg206
F0.0
sg207
F0.477298
sg208
F0.0
sg209
F0.846034
sg210
F0.156785
sg211
F0.0
sg212
F0.0
sg213
F0.0
ssg206
(dp642
g203
F0.217482
sg205
F0.0
sg206
F0.537872
sg207
F0.0
sg208
F0.154542
sg209
F0.0
sg210
F0.112409
sg211
F0.0
sg212
F0.0
sg213
F0.203864
ssg207
(dp643
g203
F0.0
sg205
F0.0
sg206
F0.0
sg207
F0.875807
sg208
F0.605706
sg209
F0.0
sg210
F0.263262
sg211
F0.198508
sg212
F0.0
sg213
F0.345543
ssg208
(dp644
g203
F0.333
sg205
F0.0
sg206
F0.0
sg207
F0.429251
sg208
F1.061396
sg209
F0.0
sg210
F0.408088
sg211
F0.0
sg212
F0.0
sg213
F0.349233
ssg209
(dp645
g203
F0.0
sg205
F0.193667
sg206
F0.242165
sg207
F0.493598
sg208
F0.0
sg209
F1.100978
sg210
F0.0
sg211
F0.0
sg212
F0.0
sg213
F0.197061
ssg210
(dp646
g203
F0.0
sg205
F0.234945
sg206
F0.710693
sg207
F0.0
sg208
F0.0
sg209
F0.255514
sg210
F0.372576
sg211
F0.0
sg212
F0.16841
sg213
F0.0
ssg211
(dp647
g203
F0.0
sg205
F0.0
sg206
F0.259034
sg207
F0.351863
sg208
F0.0
sg209
F0.0
sg210
F0.457193
sg211
F0.933999
sg212
F0.297923
sg213
F0.0
ssg212
(dp648
g203
F0.0
sg205
F0.682754
sg206
F0.148741
sg207
F0.0
sg208
F0.0
sg209
F0.44407
sg210
F0.283425
sg211
F0.0
sg212
F0.690225
sg213
F0.0
ssg213
(dp649
g203
F0.214214
sg205
F0.0
sg206
F0.0
sg207
F0.144799
sg208
F0.330012
sg209
F0.0
sg210
F0.0
sg211
F0.734229
sg212
F0.0
sg213
F0.908379
sssg223
I0
sg224
I00
sg225
(lp650
(lp651
S'0.372576'
p652
aS'-0.255514'
p653
aS'0.000000'
p654
aS'0.000000'
p655
aS'-0.710693'
p656
aS'-0.234945'
p657
aS'0.000000'
p658
aS'-0.168410'
p659
aS'0.000000'
p660
aS'0.000000'
p661
aa(lp662
S'0.000000'
p663
aS'1.100978'
p664
aS'0.000000'
p665
aS'-0.493598'
p666
aS'-0.242165'
p667
aS'0.193667'
p668
aS'0.000000'
p669
aS'0.000000'
p670
aS'0.000000'
p671
aS'-0.197061'
p672
aa(lp673
S'-0.408088'
p674
aS'0.000000'
p675
aS'1.061396'
p676
aS'0.429251'
p677
aS'0.000000'
p678
aS'0.000000'
p679
aS'-0.333000'
p680
aS'0.000000'
p681
aS'0.000000'
p682
aS'-0.349233'
p683
aa(lp684
S'-0.263262'
p685
aS'0.000000'
p686
aS'-0.605706'
p687
aS'0.875807'
p688
aS'0.000000'
p689
aS'0.000000'
p690
aS'0.000000'
p691
aS'0.000000'
p692
aS'0.198508'
p693
aS'-0.345543'
p694
aa(lp695
S'0.112409'
p696
aS'0.000000'
p697
aS'-0.154542'
p698
aS'0.000000'
p699
aS'0.537872'
p700
aS'0.000000'
p701
aS'-0.217482'
p702
aS'0.000000'
p703
aS'0.000000'
p704
aS'-0.203864'
p705
aa(lp706
S'-0.156785'
p707
aS'-0.846034'
p708
aS'0.000000'
p709
aS'-0.477298'
p710
aS'0.000000'
p711
aS'0.921665'
p712
aS'0.124076'
p713
aS'0.000000'
p714
aS'0.000000'
p715
aS'0.000000'
p716
aa(lp717
S'0.140108'
p718
aS'0.000000'
p719
aS'0.000000'
p720
aS'-0.357340'
p721
aS'0.000000'
p722
aS'-0.473044'
p723
aS'0.896255'
p724
aS'-0.526617'
p725
aS'0.000000'
p726
aS'0.000000'
p727
aa(lp728
S'-0.283425'
p729
aS'-0.444070'
p730
aS'0.000000'
p731
aS'0.000000'
p732
aS'-0.148741'
p733
aS'-0.682754'
p734
aS'0.000000'
p735
aS'0.690225'
p736
aS'0.000000'
p737
aS'0.000000'
p738
aa(lp739
S'-0.457193'
p740
aS'0.000000'
p741
aS'0.000000'
p742
aS'-0.351863'
p743
aS'-0.259034'
p744
aS'0.000000'
p745
aS'0.000000'
p746
aS'-0.297923'
p747
aS'0.933999'
p748
aS'0.000000'
p749
aa(lp750
S'0.000000'
p751
aS'0.000000'
p752
aS'-0.330012'
p753
aS'0.144799'
p754
aS'0.000000'
p755
aS'0.000000'
p756
aS'-0.214214'
p757
aS'0.000000'
p758
aS'-0.734229'
p759
aS'0.908379'
p760
aasg337
I0
sg338
g339
sbsg71
S'/Users/jesse/Workspace/School/MastersThesis/Program/output//NIR_RestK-dream410-2011-12-16_23.28.13//NIR_RestK-5//nir_program/'
p761
sg146
g147
sg338
g339
sg342
g761
sg343
g344
sg157
g158
sbsg499
I2
sg13
g14
sba(lp762
(g12
(dp763
S'tn'
p764
I52
sS'fp'
p765
I33
sS'fn'
p766
I8
sS'specificity'
p767
F0.611764705882353
sS'recall'
p768
F0.4666666666666667
sS'sensitivity'
p769
F0.4666666666666667
sS'precision'
p770
F0.175
sS'tp'
p771
I7
sS'accuracy'
p772
F0.59
stp773
a(g505
(dp774
g764
I62
sg765
I23
sg766
I8
sg767
F0.7294117647058823
sg768
F0.4666666666666667
sg769
F0.4666666666666667
sg770
F0.23333333333333334
sg771
I7
sg772
F0.69
stp775
a(g140
(dp776
g764
I46
sg765
I39
sg766
I4
sg767
F0.5411764705882353
sg768
F0.7333333333333333
sg769
F0.7333333333333333
sg770
F0.22
sg771
I11
sg772
F0.57
stp777
a(lp778
(g505
cnumpy.core.multiarray
scalar
p779
(cnumpy
dtype
p780
(S'f8'
p781
I0
I1
tp782
Rp783
(I3
S'<'
p784
NNNI-1
I-1
I0
tp785
bS'tsssss\xe3?'
p786
tp787
Rp788
tp789
a(g12
g779
(g783
S'@r\xa5\xd8\x0b?\xe2?'
p790
tp791
Rp792
tp793
a(g140
g779
(g783
S'@\xa5\x0br\xd8>\xe5?'
p794
tp795
Rp796
tp797
a(lp798
(g505
g779
(g783
S'x\xee\x98\x90\t|\xcd?'
p799
tp800
Rp801
tp802
a(g12
g779
(g783
S'\x9d\x8a\xaa\x18u\x0f\xc9?'
p803
tp804
Rp805
tp806
a(g140
g779
(g783
S'\xec\r\x90T\x01\x02\xcc?'
p807
tp808
Rp809
tp810
atp811
.