(inir
NIR
p0
(dp1
S'exp_data'
p2
NsS'data_dir'
p3
S'/Users/jesse/Workspace/School/MastersThesis/Program/output//NIR_RestK-dream410-2011-12-16_23.28.13//NIR_RestK-3//data/'
p4
sS'name'
p5
S'NIR_RestK-3'
p6
sS'settings'
p7
(dp8
S'inferelator'
p9
(dp10
S'datafiles'
p11
S'data/waffles.txt data/testing.txt'
p12
ssS'genie3'
p13
(dp14
S'config'
p15
S'config/genie3_testing.cfg'
p16
ssS'cmonkey'
p17
(dp18
S'config'
p19
S'config/cmonkey_testing.cfg'
p20
ssS'tlclr'
p21
(dp22
S'config'
p23
S'config/tlclr_testing.cfg'
p24
ssS'global'
p25
(dp26
S'matlab_path'
p27
S'matlab'
p28
sS'medium2_network_goldnet_file'
p29
S'datasets/20Gene_Network2/Ecoli-20Genes-6Reg-3_goldstandard.tsv'
p30
sS'dream4100_network_knockdown_file'
p31
S'datasets/DREAM4_InSilico_Size100/insilico_size100_1/insilico_size100_1_knockdowns.tsv'
p32
sS'medium2_network_delta_t'
p33
I50
sS'large_network_knockdown_file'
p34
S'datasets/Large_Network/Ecoli-1_knockdowns.tsv'
p35
sS'dream410_network_delta_t'
p36
I50
sS'n_processors'
p37
I3
sS'large_network_timeseries_file'
p38
S'datasets/Large_Network/Ecoli-1_dream4_timeseries.tsv'
p39
sS'dream410_network_wildtype_file'
p40
S'datasets/DREAM4_InSilico_Size10/insilico_size10_1/insilico_size10_1_wildtype.tsv'
p41
sS'medium2_network_timeseries_file'
p42
S'datasets/20Gene_Network2/Ecoli-20Genes-6Reg-3_dream4_timeseries.tsv'
p43
sS'time_series_delta_t'
p44
I50
sS'small_network_wildtype_file'
p45
S'datasets/Small_Network/Ecoli-1_wildtype.tsv'
p46
sS'medium_network_goldnet_file'
p47
S'datasets/20Gene_Network/Ecoli-20Genes-6Reg-2_goldstandard.tsv'
p48
sS'medium_network_timeseries_file'
p49
S'datasets/20Gene_Network/Ecoli-20Genes-6Reg-2_dream4_timeseries.tsv'
p50
sS'dream410_network_goldnet_file'
p51
S'datasets/DREAM4_InSilico_Size10/insilico_size10_1/DREAM4_GoldStandard_InSilico_Size10_1.tsv'
p52
sS'medium_network_wildtype_file'
p53
S'datasets/20Gene_Network/Ecoli-20Genes-6Reg-2_wildtype.tsv'
p54
sS'medium2_network_multifactorial_file'
p55
S'datasets/20Gene_Network2/Ecoli-20Genes-6Reg-3_multifactorial.tsv'
p56
sS'dream4100_network_goldnet_file'
p57
S'datasets/DREAM4_InSilico_Size100/insilico_size100_1/DREAM4_GoldStandard_InSilico_Size100_1.tsv'
p58
sS'dream4100_network_knockout_file'
p59
S'datasets/DREAM4_InSilico_Size100/insilico_size100_1/insilico_size100_1_knockouts.tsv'
p60
sS'large_network_goldnet_file'
p61
S'datasets/Large_Network/Ecoli-1_goldstandard.tsv'
p62
sS'large_network_knockout_file'
p63
S'datasets/Large_Network/Ecoli-1_knockouts.tsv'
p64
sS'working_dir'
p65
S'/Users/jesse/Workspace/School/MastersThesis/Program/'
p66
sS'small_network_multifactorial_file'
p67
S'datasets/Small_Network/Ecoli-1_multifactorial.tsv'
p68
sS'output_dir'
p69
S'output//NIR_RestK-dream410-2011-12-16_23.28.13/'
p70
sS'medium2_network_knockdown_file'
p71
S'datasets/20Gene_Network2/Ecoli-20Genes-6Reg-3_knockdowns.tsv'
p72
sS'medium_network_multifactorial_file'
p73
S'datasets/20Gene_Network/Ecoli-20Genes-6Reg-2_multifactorial.tsv'
p74
sS'log_dir'
p75
S'output/logs/'
p76
sS'dream4100_network_delta_t'
p77
I50
sS'steady_state_files'
p78
S'550ath.ratios.fix'
p79
sS'small_network_goldnet_file'
p80
S'datasets/Small_Network/Ecoli-1_goldstandard.tsv'
p81
sS'tflist'
p82
S'ArabGeneTFNames.csv'
p83
sS'dream4100_network_wildtype_file'
p84
S'datasets/DREAM4_InSilico_Size100/insilico_size100_1/insilico_size100_1_wildtype.tsv'
p85
sS'use_cluster'
p86
S'False'
p87
sS'medium_network_delta_t'
p88
I50
sS'time_series_files'
p89
S'datasets/dream4_10/dream4_ts.tsv'
p90
sS'small_network_delta_t'
p91
I30
sS'small_network_timeseries_file'
p92
S'datasets/Small_Network/Ecoli-1_dream4_timeseries.tsv'
p93
sS'large_network_delta_t'
p94
I30
sS'medium2_network_wildtype_file'
p95
S'datasets/20Gene_Network2/Ecoli-20Genes-6Reg-3_wildtype.tsv'
p96
sS'dream410_network_knockdown_file'
p97
S'datasets/DREAM4_InSilico_Size10/insilico_size10_1/insilico_size10_1_knockdowns.tsv'
p98
sS'dream4100_network_timeseries_file'
p99
S'datasets/DREAM4_InSilico_Size100/insilico_size100_1/insilico_size100_1_timeseries.tsv'
p100
sS'dream410_network_timeseries_file'
p101
S'datasets/DREAM4_InSilico_Size10/insilico_size10_1/insilico_size10_1_timeseries.tsv'
p102
sS'template_dir'
p103
S'config/templates/'
p104
sS'medium_network_knockout_file'
p105
S'datasets/20Gene_Network/Ecoli-20Genes-6Reg-2_knockouts.tsv'
p106
sS'large_network_multifactorial_file'
p107
S'datasets/Large_Network/Ecoli-1_multifactorial.tsv'
p108
sS'dream4100_network_multifactorial_file'
p109
S'datasets/DREAM4_InSilico_Size100/insilico_size100_1/insilico_size100_1_multifactorial.tsv'
p110
sS'large_network_wildtype_file'
p111
S'datasets/Large_Network/Ecoli-1_wildtype.tsv'
p112
sS'experiment_name'
p113
S'NIR_RestK-dream410'
p114
sS'small_network_knockdown_file'
p115
S'datasets/Small_Network/Ecoli-1_knockdowns.tsv'
p116
sS'dream410_network_knockout_file'
p117
S'datasets/DREAM4_InSilico_Size10/insilico_size10_1/insilico_size10_1_knockouts.tsv'
p118
sS'dream410_network_multifactorial_file'
p119
S'datasets/DREAM4_InSilico_Size10/insilico_size10_1/insilico_size10_1_multifactorial.tsv'
p120
sS'small_network_knockout_file'
p121
S'datasets/Small_Network/Ecoli-1_knockouts.tsv'
p122
sS'medium2_network_knockout_file'
p123
S'datasets/20Gene_Network2/Ecoli-20Genes-6Reg-3_knockouts.tsv'
p124
sS'medium_network_knockdown_file'
p125
S'datasets/20Gene_Network/Ecoli-20Genes-6Reg-2_knockdowns.tsv'
p126
ssS'mcz'
p127
(dp128
S'config'
p129
S'config/mcz_testing.cfg'
p130
ssS'nir'
p131
(dp132
g3
S'/Users/jesse/Workspace/School/MastersThesis/Program/output//NIR_RestK-dream410-2011-12-16_23.28.13//NIR_RestK-5//data/'
p133
sg5
S'NIR_RestK-5'
p134
sS'working_dir_config'
p135
S'/Users/jesse/Workspace/School/MastersThesis/Program/output//NIR_RestK-dream410-2011-12-16_23.28.13//NIR_RestK-5//nir_program/run_nir.m'
p136
sS'settings_file'
p137
S'/Users/jesse/Workspace/School/MastersThesis/Program/output//NIR_RestK-dream410-2011-12-16_23.28.13//NIR_RestK-5//nir_settings.m'
p138
sS'restk'
p139
I5
sS'output_dir'
p140
S'/Users/jesse/Workspace/School/MastersThesis/Program/output//NIR_RestK-dream410-2011-12-16_23.28.13//NIR_RestK-5/'
p141
sS'path'
p142
S'algorithms/nir/'
p143
sS'file_ext'
p144
S'm'
p145
sS'topd'
p146
I5
sS'config'
p147
S'config/nir_testing.cfg'
p148
sS'ratio_files'
p149
S'/Users/jesse/Workspace/School/MastersThesis/Program/output//NIR_RestK-dream410-2011-12-16_23.28.13//NIR_RestK-5//data//insilico_size10_1_knockouts.tsv'
p150
sS'log_dir'
p151
S'/Users/jesse/Workspace/School/MastersThesis/Program/output//NIR_RestK-dream410-2011-12-16_23.28.13//NIR_RestK-5//log/'
p152
ssS'banjo'
p153
(dp154
S'num_genes'
p155
I10
sS'config'
p156
S'config/banjo_testing.cfg'
p157
ssS'dfg4grn'
p158
(dp159
S'cluster_expname'
p160
S'testing'
p161
sS'tau'
p162
I10
sS'lambda_w'
p163
I2
sS'cluster_nodes'
p164
I1
sS'cluster_email'
p165
S'jml654@nyu.edu'
p166
sS'tau_range'
p167
(lp168
I1
aI3
asS'eta_z_range'
p169
(lp170
F0.0001
aF0.1
asS'eta_z'
p171
I3
sS'lambda_w_range'
p172
(lp173
F0.001
aF0.2
asS'cluster_priority'
p174
I1
sS'path'
p175
S'algorithms/dfg4grn/'
p176
sS'cluster_procs'
p177
I1
sS'config'
p178
S'config/dfg4grn_testing.cfg'
p179
sS'cluster_username'
p180
S'jml654'
p181
ssS'nirest'
p182
(dp183
S'ratio_files'
p184
S'datasets/dream4_10/dream4_ts.tsv'
p185
sS'config'
p186
S'config/nirest_testing.cfg'
p187
sssS'cmd'
p188
S'matlab -nodesktop -nodisplay -nosplash -r "addpath(genpath(\'./\'));try;run_nir, catch err, err ,end, exit"'
p189
sS'alg_name'
p190
S'nir'
p191
sS'network'
p192
(iNetwork
Network
p193
(dp194
S'binary'
p195
I00
sg192
(dp196
S'G7'
p197
(dp198
g197
F0.70777
sS'G6'
p199
F0.452918
sS'G5'
p200
F0.0
sS'G4'
p201
F0.0
sS'G3'
p202
F0.0
sS'G2'
p203
F0.0
sS'G1'
p204
F0.0
sS'G9'
p205
F0.0
sS'G8'
p206
F0.468645
sS'G10'
p207
F0.0
ssg199
(dp208
g197
F0.0
sg199
F0.840847
sg200
F0.0
sg201
F0.534536
sg202
F0.0
sg203
F0.754784
sg204
F0.0
sg205
F0.0
sg206
F0.0
sg207
F0.0
ssg200
(dp209
g197
F0.155546
sg199
F0.0
sg200
F0.437783
sg201
F0.0
sg202
F0.0
sg203
F0.0
sg204
F0.0
sg205
F0.0
sg206
F0.0
sg207
F0.192913
ssg201
(dp210
g197
F0.0
sg199
F0.0
sg200
F0.0
sg201
F0.788776
sg202
F0.769747
sg203
F0.0
sg204
F0.0
sg205
F0.0
sg206
F0.0
sg207
F0.259342
ssg202
(dp211
g197
F0.0
sg199
F0.0
sg200
F0.0
sg201
F0.0
sg202
F1.061157
sg203
F0.0
sg204
F0.320998
sg205
F0.370679
sg206
F0.0
sg207
F0.0
ssg203
(dp212
g197
F0.0
sg199
F0.0
sg200
F0.250645
sg201
F0.560699
sg202
F0.0
sg203
F1.007571
sg204
F0.0
sg205
F0.0
sg206
F0.0
sg207
F0.0
ssg204
(dp213
g197
F0.0
sg199
F0.0
sg200
F0.954643
sg201
F0.0
sg202
F0.0
sg203
F0.235178
sg204
F0.171843
sg205
F0.0
sg206
F0.0
sg207
F0.0
ssg205
(dp214
g197
F0.0
sg199
F0.0
sg200
F0.553804
sg201
F0.0
sg202
F0.0
sg203
F0.0
sg204
F0.72627
sg205
F0.798157
sg206
F0.0
sg207
F0.0
ssg206
(dp215
g197
F0.0
sg199
F0.952025
sg200
F0.0
sg201
F0.0
sg202
F0.0
sg203
F0.500311
sg204
F0.0
sg205
F0.0
sg206
F0.516891
sg207
F0.0
ssg207
(dp216
g197
F0.0
sg199
F0.0
sg200
F0.0
sg201
F0.0
sg202
F0.344207
sg203
F0.0
sg204
F0.0
sg205
F0.785348
sg206
F0.0
sg207
F0.915237
sssS'cutoff'
p217
I0
sS'signed'
p218
I00
sS'original_network'
p219
(lp220
(lp221
S'0.171843'
p222
aS'-0.235178'
p223
aS'0.000000'
p224
aS'0.000000'
p225
aS'-0.954643'
p226
aS'0.000000'
p227
aS'0.000000'
p228
aS'0.000000'
p229
aS'0.000000'
p230
aS'0.000000'
p231
aa(lp232
S'0.000000'
p233
aS'1.007571'
p234
aS'0.000000'
p235
aS'-0.560699'
p236
aS'-0.250645'
p237
aS'0.000000'
p238
aS'0.000000'
p239
aS'0.000000'
p240
aS'0.000000'
p241
aS'0.000000'
p242
aa(lp243
S'-0.320998'
p244
aS'0.000000'
p245
aS'1.061157'
p246
aS'0.000000'
p247
aS'0.000000'
p248
aS'0.000000'
p249
aS'0.000000'
p250
aS'0.000000'
p251
aS'-0.370679'
p252
aS'0.000000'
p253
aa(lp254
S'0.000000'
p255
aS'0.000000'
p256
aS'-0.769747'
p257
aS'0.788776'
p258
aS'0.000000'
p259
aS'0.000000'
p260
aS'0.000000'
p261
aS'0.000000'
p262
aS'0.000000'
p263
aS'-0.259342'
p264
aa(lp265
S'0.000000'
p266
aS'0.000000'
p267
aS'0.000000'
p268
aS'0.000000'
p269
aS'0.437783'
p270
aS'0.000000'
p271
aS'-0.155546'
p272
aS'0.000000'
p273
aS'0.000000'
p274
aS'-0.192913'
p275
aa(lp276
S'0.000000'
p277
aS'-0.754784'
p278
aS'0.000000'
p279
aS'-0.534536'
p280
aS'0.000000'
p281
aS'0.840847'
p282
aS'0.000000'
p283
aS'0.000000'
p284
aS'0.000000'
p285
aS'0.000000'
p286
aa(lp287
S'0.000000'
p288
aS'0.000000'
p289
aS'0.000000'
p290
aS'0.000000'
p291
aS'0.000000'
p292
aS'-0.452918'
p293
aS'0.707770'
p294
aS'-0.468645'
p295
aS'0.000000'
p296
aS'0.000000'
p297
aa(lp298
S'0.000000'
p299
aS'-0.500311'
p300
aS'0.000000'
p301
aS'0.000000'
p302
aS'0.000000'
p303
aS'-0.952025'
p304
aS'0.000000'
p305
aS'0.516891'
p306
aS'0.000000'
p307
aS'0.000000'
p308
aa(lp309
S'-0.726270'
p310
aS'0.000000'
p311
aS'0.000000'
p312
aS'0.000000'
p313
aS'-0.553804'
p314
aS'0.000000'
p315
aS'0.000000'
p316
aS'0.000000'
p317
aS'0.798157'
p318
aS'0.000000'
p319
aa(lp320
S'0.000000'
p321
aS'0.000000'
p322
aS'-0.344207'
p323
aS'0.000000'
p324
aS'0.000000'
p325
aS'0.000000'
p326
aS'0.000000'
p327
aS'0.000000'
p328
aS'-0.785348'
p329
aS'0.915237'
p330
aasS'thresh'
p331
I0
sS'gene_list'
p332
(lp333
g204
ag203
ag202
ag201
ag200
ag199
ag197
ag206
ag205
ag207
asbsg65
S'/Users/jesse/Workspace/School/MastersThesis/Program/output//NIR_RestK-dream410-2011-12-16_23.28.13//NIR_RestK-3//nir_program/'
p334
sg140
S'/Users/jesse/Workspace/School/MastersThesis/Program/output//NIR_RestK-dream410-2011-12-16_23.28.13//NIR_RestK-3/'
p335
sg332
g333
sS'cwd'
p336
g334
sS'data_storage'
p337
(iDataStore
MicroarrayData
p338
(dp339
S'experiments'
p340
(lp341
(iDataStore
Experiment
p342
(dp343
S'ratios'
p344
(dp345
g197
S'0.8300751'
p346
sg199
S'0.3751750'
p347
sg200
S'0.8043362'
p348
sg201
S'0.3623740'
p349
sg202
S'0.2643345'
p350
sg203
S'0.3726836'
p351
sg204
S'0.0000000'
p352
sg205
S'0.6211513'
p353
sg206
S'0.7745205'
p354
sg207
S'0.7196954'
p355
ssS'type'
p356
S'knockout'
p357
sS'tfs'
p358
(lp359
sg5
S'0'
p360
sS'file'
p361
g118
sba(iDataStore
Experiment
p362
(dp363
g344
(dp364
g197
S'0.5208251'
p365
sg199
S'0.3396784'
p366
sg200
S'0.1510230'
p367
sg201
S'0.6002870'
p368
sg202
S'0.3771581'
p369
sg203
S'0.0000000'
p370
sg204
S'0.7331094'
p371
sg205
S'0.7350115'
p372
sg206
S'0.6787224'
p373
sg207
S'0.7922641'
p374
ssg356
g357
sg358
g359
sg5
S'1'
p375
sg361
g118
sba(iDataStore
Experiment
p376
(dp377
g344
(dp378
g197
S'0.6641803'
p379
sg199
S'0.4025691'
p380
sg200
S'0.0791767'
p381
sg201
S'0.3730533'
p382
sg202
S'0.0000000'
p383
sg203
S'0.1391272'
p384
sg204
S'0.7070529'
p385
sg205
S'0.7220312'
p386
sg206
S'0.8045297'
p387
sg207
S'0.6658928'
p388
ssg356
g357
sg358
g359
sg5
S'2'
p389
sg361
g118
sba(iDataStore
Experiment
p390
(dp391
g344
(dp392
g197
S'0.1099868'
p393
sg199
S'0.2836348'
p394
sg200
S'0.1489169'
p395
sg201
S'0.0000000'
p396
sg202
S'0.6167796'
p397
sg203
S'0.1071007'
p398
sg204
S'0.8450825'
p399
sg205
S'0.5874284'
p400
sg206
S'0.6342242'
p401
sg207
S'0.7160394'
p402
ssg356
g357
sg358
g359
sg5
S'3'
p403
sg361
g118
sba(iDataStore
Experiment
p404
(dp405
g344
(dp406
g197
S'0.5416993'
p407
sg199
S'0.3271487'
p408
sg200
S'0.0000000'
p409
sg201
S'0.5616994'
p410
sg202
S'0.4261411'
p411
sg203
S'0.1364529'
p412
sg204
S'0.8780137'
p413
sg205
S'0.7343038'
p414
sg206
S'0.5681723'
p415
sg207
S'0.7933364'
p416
ssg356
g357
sg358
g359
sg5
S'4'
p417
sg361
g118
sba(iDataStore
Experiment
p418
(dp419
g344
(dp420
g197
S'0.4606635'
p421
sg199
S'0.0000000'
p422
sg200
S'0.0947163'
p423
sg201
S'0.6272800'
p424
sg202
S'0.4614097'
p425
sg203
S'0.3975987'
p426
sg204
S'0.6164494'
p427
sg205
S'0.7374282'
p428
sg206
S'0.5924707'
p429
sg207
S'0.7962721'
p430
ssg356
g357
sg358
g359
sg5
S'5'
p431
sg361
g118
sba(iDataStore
Experiment
p432
(dp433
g344
(dp434
g197
S'0.0000000'
p435
sg199
S'0.3024242'
p436
sg200
S'0.0843933'
p437
sg201
S'0.2712395'
p438
sg202
S'0.3150332'
p439
sg203
S'0.0855962'
p440
sg204
S'0.6906661'
p441
sg205
S'0.8041040'
p442
sg206
S'0.7503346'
p443
sg207
S'0.6355293'
p444
ssg356
g357
sg358
g359
sg5
S'6'
p445
sg361
g118
sba(iDataStore
Experiment
p446
(dp447
g344
(dp448
g197
S'0.5464286'
p449
sg199
S'0.6322827'
p450
sg200
S'0.1194226'
p451
sg201
S'0.6637898'
p452
sg202
S'0.3753798'
p453
sg203
S'0.2786197'
p454
sg204
S'0.7996258'
p455
sg205
S'0.7722994'
p456
sg206
S'0.0000000'
p457
sg207
S'0.6917469'
p458
ssg356
g357
sg358
g359
sg5
S'7'
p459
sg361
g118
sba(iDataStore
Experiment
p460
(dp461
g344
(dp462
g197
S'0.6929004'
p463
sg199
S'0.2983418'
p464
sg200
S'0.1357722'
p465
sg201
S'0.3983948'
p466
sg202
S'0.2351013'
p467
sg203
S'0.1223010'
p468
sg204
S'0.7928387'
p469
sg205
S'0.0000000'
p470
sg206
S'0.7674369'
p471
sg207
S'0.0362879'
p472
ssg356
g357
sg358
g359
sg5
S'8'
p473
sg361
g118
sba(iDataStore
Experiment
p474
(dp475
g344
(dp476
g197
S'0.6154742'
p477
sg199
S'0.3397100'
p478
sg200
S'0.1241278'
p479
sg201
S'0.3636434'
p480
sg202
S'0.4215866'
p481
sg203
S'0.1399857'
p482
sg204
S'0.7939821'
p483
sg205
S'0.7247379'
p484
sg206
S'0.6776090'
p485
sg207
S'0.0000000'
p486
ssg356
g357
sg358
g359
sg5
S'9'
p487
sg361
g118
sbasg356
g357
sS'timeseries_num'
p488
Nsg332
g333
sS'input_files'
p489
(lp490
S'insilico_size10_1_knockouts.tsv'
p491
asbsg151
S'/Users/jesse/Workspace/School/MastersThesis/Program/output//NIR_RestK-dream410-2011-12-16_23.28.13//NIR_RestK-3//log/'
p492
sb.