((lp0
(iJobManager
Job
p1
(dp2
S'status'
p3
S'Finished.'
p4
sS'alg'
p5
(itlclr
TLCLR
p6
(dp7
S'exp_data'
p8
NsS'cmd'
p9
S'Rscript r_scripts/main.R'
p10
sS'data_dir'
p11
S'/Users/jesse/Workspace/School/MastersThesis/Program/output//TLCLR-DFG4grn-dream410-2011-12-15_01.35.30//TLCLR_No_KD//data/'
p12
sS'name'
p13
S'TLCLR_No_KD'
p14
sS'ko_storage'
p15
(iDataStore
MicroarrayData
p16
(dp17
S'experiments'
p18
(lp19
(iDataStore
Experiment
p20
(dp21
S'ratios'
p22
(dp23
S'G7'
p24
S'0.8300751'
p25
sS'G6'
p26
S'0.3751750'
p27
sS'G5'
p28
S'0.8043362'
p29
sS'G4'
p30
S'0.3623740'
p31
sS'G3'
p32
S'0.2643345'
p33
sS'G2'
p34
S'0.3726836'
p35
sS'G1'
p36
S'0.0000000'
p37
sS'G9'
p38
S'0.6211513'
p39
sS'G8'
p40
S'0.7745205'
p41
sS'G10'
p42
S'0.7196954'
p43
ssS'type'
p44
S'knockout'
p45
sS'tfs'
p46
(lp47
sg13
S'0'
p48
sS'file'
p49
S'datasets/DREAM4_InSilico_Size10/insilico_size10_1/inSilico_size10_1_knockouts.tsv'
p50
sba(iDataStore
Experiment
p51
(dp52
g22
(dp53
g24
S'0.5208251'
p54
sg26
S'0.3396784'
p55
sg28
S'0.1510230'
p56
sg30
S'0.6002870'
p57
sg32
S'0.3771581'
p58
sg34
S'0.0000000'
p59
sg36
S'0.7331094'
p60
sg38
S'0.7350115'
p61
sg40
S'0.6787224'
p62
sg42
S'0.7922641'
p63
ssg44
g45
sg46
g47
sg13
S'1'
p64
sg49
g50
sba(iDataStore
Experiment
p65
(dp66
g22
(dp67
g24
S'0.6641803'
p68
sg26
S'0.4025691'
p69
sg28
S'0.0791767'
p70
sg30
S'0.3730533'
p71
sg32
S'0.0000000'
p72
sg34
S'0.1391272'
p73
sg36
S'0.7070529'
p74
sg38
S'0.7220312'
p75
sg40
S'0.8045297'
p76
sg42
S'0.6658928'
p77
ssg44
g45
sg46
g47
sg13
S'2'
p78
sg49
g50
sba(iDataStore
Experiment
p79
(dp80
g22
(dp81
g24
S'0.1099868'
p82
sg26
S'0.2836348'
p83
sg28
S'0.1489169'
p84
sg30
S'0.0000000'
p85
sg32
S'0.6167796'
p86
sg34
S'0.1071007'
p87
sg36
S'0.8450825'
p88
sg38
S'0.5874284'
p89
sg40
S'0.6342242'
p90
sg42
S'0.7160394'
p91
ssg44
g45
sg46
g47
sg13
S'3'
p92
sg49
g50
sba(iDataStore
Experiment
p93
(dp94
g22
(dp95
g24
S'0.5416993'
p96
sg26
S'0.3271487'
p97
sg28
S'0.0000000'
p98
sg30
S'0.5616994'
p99
sg32
S'0.4261411'
p100
sg34
S'0.1364529'
p101
sg36
S'0.8780137'
p102
sg38
S'0.7343038'
p103
sg40
S'0.5681723'
p104
sg42
S'0.7933364'
p105
ssg44
g45
sg46
g47
sg13
S'4'
p106
sg49
g50
sba(iDataStore
Experiment
p107
(dp108
g22
(dp109
g24
S'0.4606635'
p110
sg26
S'0.0000000'
p111
sg28
S'0.0947163'
p112
sg30
S'0.6272800'
p113
sg32
S'0.4614097'
p114
sg34
S'0.3975987'
p115
sg36
S'0.6164494'
p116
sg38
S'0.7374282'
p117
sg40
S'0.5924707'
p118
sg42
S'0.7962721'
p119
ssg44
g45
sg46
g47
sg13
S'5'
p120
sg49
g50
sba(iDataStore
Experiment
p121
(dp122
g22
(dp123
g24
S'0.0000000'
p124
sg26
S'0.3024242'
p125
sg28
S'0.0843933'
p126
sg30
S'0.2712395'
p127
sg32
S'0.3150332'
p128
sg34
S'0.0855962'
p129
sg36
S'0.6906661'
p130
sg38
S'0.8041040'
p131
sg40
S'0.7503346'
p132
sg42
S'0.6355293'
p133
ssg44
g45
sg46
g47
sg13
S'6'
p134
sg49
g50
sba(iDataStore
Experiment
p135
(dp136
g22
(dp137
g24
S'0.5464286'
p138
sg26
S'0.6322827'
p139
sg28
S'0.1194226'
p140
sg30
S'0.6637898'
p141
sg32
S'0.3753798'
p142
sg34
S'0.2786197'
p143
sg36
S'0.7996258'
p144
sg38
S'0.7722994'
p145
sg40
S'0.0000000'
p146
sg42
S'0.6917469'
p147
ssg44
g45
sg46
g47
sg13
S'7'
p148
sg49
g50
sba(iDataStore
Experiment
p149
(dp150
g22
(dp151
g24
S'0.6929004'
p152
sg26
S'0.2983418'
p153
sg28
S'0.1357722'
p154
sg30
S'0.3983948'
p155
sg32
S'0.2351013'
p156
sg34
S'0.1223010'
p157
sg36
S'0.7928387'
p158
sg38
S'0.0000000'
p159
sg40
S'0.7674369'
p160
sg42
S'0.0362879'
p161
ssg44
g45
sg46
g47
sg13
S'8'
p162
sg49
g50
sba(iDataStore
Experiment
p163
(dp164
g22
(dp165
g24
S'0.6154742'
p166
sg26
S'0.3397100'
p167
sg28
S'0.1241278'
p168
sg30
S'0.3636434'
p169
sg32
S'0.4215866'
p170
sg34
S'0.1399857'
p171
sg36
S'0.7939821'
p172
sg38
S'0.7247379'
p173
sg40
S'0.6776090'
p174
sg42
S'0.0000000'
p175
ssg44
g45
sg46
g47
sg13
S'9'
p176
sg49
g50
sbasg44
g45
sS'timeseries_num'
p177
NsS'gene_list'
p178
(lp179
g36
ag34
ag32
ag30
ag28
ag26
ag24
ag40
ag38
ag42
asS'input_files'
p180
(lp181
S'inSilico_size10_1_knockouts.tsv'
p182
asbsS'settings'
p183
(dp184
S'inferelator'
p185
(dp186
S'datafiles'
p187
S'data/waffles.txt data/testing.txt'
p188
ssS'genie3'
p189
(dp190
S'config'
p191
S'config/genie3_testing.cfg'
p192
ssS'cmonkey'
p193
(dp194
S'config'
p195
S'config/cmonkey_testing.cfg'
p196
ssS'tlclr'
p197
(dp198
S'bootstrap_runs'
p199
I10
sS'tau'
p200
I45
sg45
S'/Users/jesse/Workspace/School/MastersThesis/Program/output//TLCLR-DFG4grn-dream410-2011-12-15_01.35.30//TLCLR_No_KD//data//inSilico_size10_1_knockouts.tsv'
p201
sS'file_ext'
p202
S'R'
p203
sS'working_dir_config'
p204
S'/Users/jesse/Workspace/School/MastersThesis/Program/output//TLCLR-DFG4grn-dream410-2011-12-15_01.35.30//TLCLR_No_KD//tlclr_program/tlclr_launch_script.R'
p205
sS'plot'
p206
S'TRUE'
p207
sg11
g12
sS'num_steadystate_exp'
p208
I11
sS'kd_filename'
p209
NsS'other'
p210
S'None'
p211
sS'log_dir'
p212
S'/Users/jesse/Workspace/School/MastersThesis/Program/output//TLCLR-DFG4grn-dream410-2011-12-15_01.35.30//TLCLR_No_KD//log/'
p213
sS'config'
p214
S'config/tlclr_testing.cfg'
p215
sS'output_dir'
p216
S'/Users/jesse/Workspace/School/MastersThesis/Program/output//TLCLR-DFG4grn-dream410-2011-12-15_01.35.30//TLCLR_No_KD/'
p217
sS'delta_t_max'
p218
I110
sS'clr_design'
p219
S'time_delayed'
p220
sS'clr_response'
p221
S'inf_1_all_intervals'
p222
sS'timeseries'
p223
S'/Users/jesse/Workspace/School/MastersThesis/Program/output//TLCLR-DFG4grn-dream410-2011-12-15_01.35.30//TLCLR_No_KD//data//Timeseries-Rep0.csv'
p224
sS'path'
p225
S'algorithms/tlclr/'
p226
sS'lars_design'
p227
S'time_delayed'
p228
sS'settings_file'
p229
S'/Users/jesse/Workspace/School/MastersThesis/Program/output//TLCLR-DFG4grn-dream410-2011-12-15_01.35.30//TLCLR_No_KD//tlclr_settings.R'
p230
sg13
g14
sS'tfs_filename'
p231
NsS'ko_filename'
p232
NsS'wildtype'
p233
S'/Users/jesse/Workspace/School/MastersThesis/Program/output//TLCLR-DFG4grn-dream410-2011-12-15_01.35.30//TLCLR_No_KD//data//inSilico_size10_1_wildtype.tsv'
p234
sS'num_procs'
p235
I1
sS'wt_filename'
p236
NsS'ts_filename'
p237
NsS'lars_response'
p238
S'inf_1_all_intervals'
p239
ssS'global'
p240
(dp241
S'matlab_path'
p242
S'matlab'
p243
sS'medium2_network_goldnet_file'
p244
S'datasets/20Gene_Network2/Ecoli-20Genes-6Reg-3_goldstandard.tsv'
p245
sS'dream4100_network_knockdown_file'
p246
S'datasets/DREAM4_InSilico_Size100/insilico_size100_1/insilico_size100_1_knockdowns.tsv'
p247
sS'medium2_network_delta_t'
p248
I50
sS'large_network_knockdown_file'
p249
S'datasets/Large_Network/Ecoli-1_knockdowns.tsv'
p250
sS'dream410_network_delta_t'
p251
I50
sS'n_processors'
p252
I3
sS'large_network_timeseries_file'
p253
S'datasets/Large_Network/Ecoli-1_dream4_timeseries.tsv'
p254
sS'dream410_network_wildtype_file'
p255
S'datasets/DREAM4_InSilico_Size10/insilico_size10_1/inSilico_size10_1_wildtype.tsv'
p256
sS'medium2_network_timeseries_file'
p257
S'datasets/20Gene_Network2/Ecoli-20Genes-6Reg-3_dream4_timeseries.tsv'
p258
sS'time_series_delta_t'
p259
I50
sS'small_network_wildtype_file'
p260
S'datasets/Small_Network/Ecoli-1_wildtype.tsv'
p261
sS'medium_network_goldnet_file'
p262
S'datasets/20Gene_Network/Ecoli-20Genes-6Reg-2_goldstandard.tsv'
p263
sS'medium_network_timeseries_file'
p264
S'datasets/20Gene_Network/Ecoli-20Genes-6Reg-2_dream4_timeseries.tsv'
p265
sS'dream410_network_goldnet_file'
p266
S'datasets/DREAM4_InSilico_Size10/insilico_size10_1/DREAM4_GoldStandard_InSilico_Size10_1.tsv'
p267
sS'medium_network_wildtype_file'
p268
S'datasets/20Gene_Network/Ecoli-20Genes-6Reg-2_wildtype.tsv'
p269
sS'medium2_network_multifactorial_file'
p270
S'datasets/20Gene_Network2/Ecoli-20Genes-6Reg-3_multifactorial.tsv'
p271
sS'dream4100_network_goldnet_file'
p272
S'datasets/DREAM4_InSilico_Size100/insilico_size100_1/DREAM4_GoldStandard_InSilico_Size100_1.tsv'
p273
sS'dream4100_network_knockout_file'
p274
S'datasets/DREAM4_InSilico_Size100/insilico_size100_1/insilico_size100_1_knockouts.tsv'
p275
sS'large_network_goldnet_file'
p276
S'datasets/Large_Network/Ecoli-1_goldstandard.tsv'
p277
sS'large_network_knockout_file'
p278
S'datasets/Large_Network/Ecoli-1_knockouts.tsv'
p279
sS'working_dir'
p280
S'/Users/jesse/Workspace/School/MastersThesis/Program/'
p281
sS'small_network_multifactorial_file'
p282
S'datasets/Small_Network/Ecoli-1_multifactorial.tsv'
p283
sS'output_dir'
p284
S'output//TLCLR-DFG4grn-dream410-2011-12-15_01.35.30/'
p285
sS'medium2_network_knockdown_file'
p286
S'datasets/20Gene_Network2/Ecoli-20Genes-6Reg-3_knockdowns.tsv'
p287
sS'medium_network_multifactorial_file'
p288
S'datasets/20Gene_Network/Ecoli-20Genes-6Reg-2_multifactorial.tsv'
p289
sS'log_dir'
p290
S'output/logs/'
p291
sS'dream4100_network_delta_t'
p292
I50
sS'steady_state_files'
p293
S'550ath.ratios.fix'
p294
sS'small_network_goldnet_file'
p295
S'datasets/Small_Network/Ecoli-1_goldstandard.tsv'
p296
sS'tflist'
p297
S'ArabGeneTFNames.csv'
p298
sS'dream4100_network_wildtype_file'
p299
S'datasets/DREAM4_InSilico_Size100/insilico_size100_1/insilico_size100_1_wildtype.tsv'
p300
sS'use_cluster'
p301
S'False'
p302
sS'medium_network_delta_t'
p303
I50
sS'time_series_files'
p304
S'datasets/dream4_10/dream4_ts.tsv'
p305
sS'small_network_delta_t'
p306
I30
sS'small_network_timeseries_file'
p307
S'datasets/Small_Network/Ecoli-1_dream4_timeseries.tsv'
p308
sS'large_network_delta_t'
p309
I30
sS'medium2_network_wildtype_file'
p310
S'datasets/20Gene_Network2/Ecoli-20Genes-6Reg-3_wildtype.tsv'
p311
sS'dream410_network_knockdown_file'
p312
S'datasets/DREAM4_InSilico_Size10/insilico_size10_1/inSilico_size10_1_knockdowns.tsv'
p313
sS'dream4100_network_timeseries_file'
p314
S'datasets/DREAM4_InSilico_Size100/insilico_size100_1/insilico_size100_1_timeseries.tsv'
p315
sS'dream410_network_timeseries_file'
p316
S'datasets/DREAM4_InSilico_Size10/insilico_size10_1/inSilico_size10_1_timeseries.tsv'
p317
sS'template_dir'
p318
S'config/templates/'
p319
sS'medium_network_knockout_file'
p320
S'datasets/20Gene_Network/Ecoli-20Genes-6Reg-2_knockouts.tsv'
p321
sS'large_network_multifactorial_file'
p322
S'datasets/Large_Network/Ecoli-1_multifactorial.tsv'
p323
sS'dream4100_network_multifactorial_file'
p324
S'datasets/DREAM4_InSilico_Size100/insilico_size100_1/insilico_size100_1_multifactorial.tsv'
p325
sS'large_network_wildtype_file'
p326
S'datasets/Large_Network/Ecoli-1_wildtype.tsv'
p327
sS'experiment_name'
p328
S'TLCLR-DFG4grn-dream410'
p329
sS'small_network_knockdown_file'
p330
S'datasets/Small_Network/Ecoli-1_knockdowns.tsv'
p331
sS'dream410_network_knockout_file'
p332
g50
sS'dream410_network_multifactorial_file'
p333
S'datasets/DREAM4_InSilico_Size10/insilico_size10_1/inSilico_size10_1_multifactorial.tsv'
p334
sS'small_network_knockout_file'
p335
S'datasets/Small_Network/Ecoli-1_knockouts.tsv'
p336
sS'medium2_network_knockout_file'
p337
S'datasets/20Gene_Network2/Ecoli-20Genes-6Reg-3_knockouts.tsv'
p338
sS'medium_network_knockdown_file'
p339
S'datasets/20Gene_Network/Ecoli-20Genes-6Reg-2_knockdowns.tsv'
p340
ssS'dfg4gen'
p341
(dp342
S'tfs_file'
p343
S'ArabGeneTFNames.csv'
p344
ssS'mcz'
p345
(dp346
S'config'
p347
S'config/mcz_testing.cfg'
p348
ssS'nir'
p349
(dp350
S'config'
p351
S'config/nir_testing.cfg'
p352
ssS'banjo'
p353
(dp354
S'num_genes'
p355
I10
sS'config'
p356
S'config/banjo_testing.cfg'
p357
ssS'dfg4grn'
p358
(dp359
S'cluster_expname'
p360
S'testing'
p361
sS'tau'
p362
I10
sS'lambda_w'
p363
I2
sS'cluster_nodes'
p364
I1
sS'cluster_email'
p365
S'jml654@nyu.edu'
p366
sS'tau_range'
p367
(lp368
I1
aI3
asS'eta_z_range'
p369
(lp370
F0.0001
aF0.1
asS'eta_z'
p371
I3
sS'lambda_w_range'
p372
(lp373
F0.001
aF0.2
asS'cluster_priority'
p374
I1
sS'path'
p375
S'algorithms/dfg4grn/'
p376
sS'cluster_procs'
p377
I1
sS'config'
p378
S'config/dfg4grn_testing.cfg'
p379
sS'cluster_username'
p380
S'jml654'
p381
ssS'nirest'
p382
(dp383
S'ratio_files'
p384
S'datasets/dream4_10/dream4_ts.tsv'
p385
sS'config'
p386
S'config/nirest_testing.cfg'
p387
sssS'ts_storage'
p388
(lp389
(iDataStore
MicroarrayData
p390
(dp391
g18
(lp392
(iDataStore
Experiment
p393
(dp394
g22
(dp395
S'G7'
p396
S'0.6067846'
p397
sS'G6'
p398
S'0.2754930'
p399
sS'G5'
p400
S'0.1004299'
p401
sS'G4'
p402
S'0.7745716'
p403
sS'G3'
p404
S'0.3550646'
p405
sS'G2'
p406
S'0.1272186'
p407
sS'G1'
p408
S'0.6665114'
p409
sS'G9'
p410
S'0.6656366'
p411
sS'G8'
p412
S'0.7430983'
p413
sS'G10'
p414
S'0.6950638'
p415
ssg44
g223
sg46
g47
sg13
S'0.0'
p416
sg49
S'Timeseries-Rep3.csv'
p417
sba(iDataStore
Experiment
p418
(dp419
g22
(dp420
g396
S'0.6096963'
p421
sg398
S'0.3107637'
p422
sg400
S'0.1924591'
p423
sg402
S'0.7229108'
p424
sg404
S'0.3464115'
p425
sg406
S'0.1218223'
p426
sg408
S'0.3257748'
p427
sg410
S'0.5554138'
p428
sg412
S'0.7567515'
p429
sg414
S'0.7327167'
p430
ssg44
g223
sg46
g47
sg13
S'50.0'
p431
sg49
g417
sba(iDataStore
Experiment
p432
(dp433
g22
(dp434
g396
S'0.4647324'
p435
sg398
S'0.3569736'
p436
sg400
S'0.2333497'
p437
sg402
S'0.5868280'
p438
sg404
S'0.5712888'
p439
sg406
S'0.0443587'
p440
sg408
S'0.1775012'
p441
sg410
S'0.7211032'
p442
sg412
S'0.6656993'
p443
sg414
S'0.6717156'
p444
ssg44
g223
sg46
g47
sg13
S'100.0'
p445
sg49
g417
sba(iDataStore
Experiment
p446
(dp447
g22
(dp448
g396
S'0.4200074'
p449
sg398
S'0.3375671'
p450
sg400
S'0.4045100'
p451
sg402
S'0.6338205'
p452
sg404
S'0.4849771'
p453
sg406
S'0.0615354'
p454
sg408
S'0.1838851'
p455
sg410
S'0.6402268'
p456
sg412
S'0.7324089'
p457
sg414
S'0.6970434'
p458
ssg44
g223
sg46
g47
sg13
S'150.0'
p459
sg49
g417
sba(iDataStore
Experiment
p460
(dp461
g22
(dp462
g396
S'0.4145393'
p463
sg398
S'0.2994227'
p464
sg400
S'0.5583316'
p465
sg402
S'0.5354375'
p466
sg404
S'0.3435551'
p467
sg406
S'0.1398431'
p468
sg408
S'0.0930693'
p469
sg410
S'0.5478739'
p470
sg412
S'0.6771472'
p471
sg414
S'0.7512751'
p472
ssg44
g223
sg46
g47
sg13
S'200.0'
p473
sg49
g417
sba(iDataStore
Experiment
p474
(dp475
g22
(dp476
g396
S'0.5788573'
p477
sg398
S'0.3676576'
p478
sg400
S'0.6429076'
p479
sg402
S'0.5255509'
p480
sg404
S'0.3124305'
p481
sg406
S'0.0886361'
p482
sg408
S'0.0653015'
p483
sg410
S'0.5983088'
p484
sg412
S'0.8026375'
p485
sg414
S'0.6088625'
p486
ssg44
g223
sg46
g47
sg13
S'250.0'
p487
sg49
g417
sba(iDataStore
Experiment
p488
(dp489
g22
(dp490
g396
S'0.5993621'
p491
sg398
S'0.2992928'
p492
sg400
S'0.5350145'
p493
sg402
S'0.4599706'
p494
sg404
S'0.4126412'
p495
sg406
S'0.0948080'
p496
sg408
S'0.1502136'
p497
sg410
S'0.7288696'
p498
sg412
S'0.6181808'
p499
sg414
S'0.6660468'
p500
ssg44
g223
sg46
g47
sg13
S'300.0'
p501
sg49
g417
sba(iDataStore
Experiment
p502
(dp503
g22
(dp504
g396
S'0.6775364'
p505
sg398
S'0.3430145'
p506
sg400
S'0.5641511'
p507
sg402
S'0.4214017'
p508
sg404
S'0.3764574'
p509
sg406
S'0.0904510'
p510
sg408
S'0.0913323'
p511
sg410
S'0.7736935'
p512
sg412
S'0.5235399'
p513
sg414
S'0.7443968'
p514
ssg44
g223
sg46
g47
sg13
S'350.0'
p515
sg49
g417
sba(iDataStore
Experiment
p516
(dp517
g22
(dp518
g396
S'0.5142803'
p519
sg398
S'0.2333228'
p520
sg400
S'0.6718907'
p521
sg402
S'0.5030134'
p522
sg404
S'0.5188737'
p523
sg406
S'0.1182462'
p524
sg408
S'0.1358562'
p525
sg410
S'0.6843619'
p526
sg412
S'0.6087675'
p527
sg414
S'0.8365310'
p528
ssg44
g223
sg46
g47
sg13
S'400.0'
p529
sg49
g417
sba(iDataStore
Experiment
p530
(dp531
g22
(dp532
g396
S'0.4995680'
p533
sg398
S'0.3815948'
p534
sg400
S'0.6740419'
p535
sg402
S'0.4831358'
p536
sg404
S'0.3768678'
p537
sg406
S'0.0765614'
p538
sg408
S'0.1667014'
p539
sg410
S'0.7486546'
p540
sg412
S'0.5959077'
p541
sg414
S'0.7173045'
p542
ssg44
g223
sg46
g47
sg13
S'450.0'
p543
sg49
g417
sba(iDataStore
Experiment
p544
(dp545
g22
(dp546
g396
S'0.5091151'
p547
sg398
S'0.3344889'
p548
sg400
S'0.7354699'
p549
sg402
S'0.5403027'
p550
sg404
S'0.4322347'
p551
sg406
S'0.0755040'
p552
sg408
S'0.1170103'
p553
sg410
S'0.6725776'
p554
sg412
S'0.7152812'
p555
sg414
S'0.6325963'
p556
ssg44
g223
sg46
g47
sg13
S'500.0'
p557
sg49
g417
sba(iDataStore
Experiment
p558
(dp559
g22
(dp560
g396
S'0.4479249'
p561
sg398
S'0.3585150'
p562
sg400
S'0.4852550'
p563
sg402
S'0.6183860'
p564
sg404
S'0.3453156'
p565
sg406
S'0.0937210'
p566
sg408
S'0.4708819'
p567
sg410
S'0.7919255'
p568
sg412
S'0.7052075'
p569
sg414
S'0.5868152'
p570
ssg44
g223
sg46
g47
sg13
S'550.0'
p571
sg49
g417
sba(iDataStore
Experiment
p572
(dp573
g22
(dp574
g396
S'0.4196698'
p575
sg398
S'0.3239021'
p576
sg400
S'0.3257959'
p577
sg402
S'0.6233838'
p578
sg404
S'0.4763379'
p579
sg406
S'0.1443166'
p580
sg408
S'0.5545089'
p581
sg410
S'0.5791635'
p582
sg412
S'0.7299200'
p583
sg414
S'0.6029599'
p584
ssg44
g223
sg46
g47
sg13
S'600.0'
p585
sg49
g417
sba(iDataStore
Experiment
p586
(dp587
g22
(dp588
g396
S'0.4524902'
p589
sg398
S'0.2928635'
p590
sg400
S'0.2634359'
p591
sg402
S'0.6429242'
p592
sg404
S'0.3527660'
p593
sg406
S'0.1580246'
p594
sg408
S'0.5717737'
p595
sg410
S'0.6633159'
p596
sg412
S'0.7210641'
p597
sg414
S'0.6927663'
p598
ssg44
g223
sg46
g47
sg13
S'650.0'
p599
sg49
g417
sba(iDataStore
Experiment
p600
(dp601
g22
(dp602
g396
S'0.6356541'
p603
sg398
S'0.3049710'
p604
sg400
S'0.1906673'
p605
sg402
S'0.7448212'
p606
sg404
S'0.3817925'
p607
sg406
S'0.0906398'
p608
sg408
S'0.6437458'
p609
sg410
S'0.8094115'
p610
sg412
S'0.6836201'
p611
sg414
S'0.7286575'
p612
ssg44
g223
sg46
g47
sg13
S'700.0'
p613
sg49
g417
sba(iDataStore
Experiment
p614
(dp615
g22
(dp616
g396
S'0.5680143'
p617
sg398
S'0.2934906'
p618
sg400
S'0.1278089'
p619
sg402
S'0.6477586'
p620
sg404
S'0.4025808'
p621
sg406
S'0.0959292'
p622
sg408
S'0.6988616'
p623
sg410
S'0.6819686'
p624
sg412
S'0.7435989'
p625
sg414
S'0.8213812'
p626
ssg44
g223
sg46
g47
sg13
S'750.0'
p627
sg49
g417
sba(iDataStore
Experiment
p628
(dp629
g22
(dp630
g396
S'0.5652458'
p631
sg398
S'0.3429125'
p632
sg400
S'0.1340147'
p633
sg402
S'0.7884273'
p634
sg404
S'0.3520098'
p635
sg406
S'0.1251139'
p636
sg408
S'0.6002293'
p637
sg410
S'0.7548764'
p638
sg412
S'0.6701132'
p639
sg414
S'0.6814079'
p640
ssg44
g223
sg46
g47
sg13
S'800.0'
p641
sg49
g417
sba(iDataStore
Experiment
p642
(dp643
g22
(dp644
g396
S'0.3950302'
p645
sg398
S'0.3146772'
p646
sg400
S'0.1391781'
p647
sg402
S'0.7086632'
p648
sg404
S'0.4541817'
p649
sg406
S'0.0985328'
p650
sg408
S'0.7516840'
p651
sg410
S'0.6583495'
p652
sg412
S'0.6562918'
p653
sg414
S'0.6836276'
p654
ssg44
g223
sg46
g47
sg13
S'850.0'
p655
sg49
g417
sba(iDataStore
Experiment
p656
(dp657
g22
(dp658
g396
S'0.4627621'
p659
sg398
S'0.3309160'
p660
sg400
S'0.0960015'
p661
sg402
S'0.7009680'
p662
sg404
S'0.4254553'
p663
sg406
S'0.0823597'
p664
sg408
S'0.7058190'
p665
sg410
S'0.6866225'
p666
sg412
S'0.6610090'
p667
sg414
S'0.7453896'
p668
ssg44
g223
sg46
g47
sg13
S'900.0'
p669
sg49
g417
sba(iDataStore
Experiment
p670
(dp671
g22
(dp672
g396
S'0.5903798'
p673
sg398
S'0.3386791'
p674
sg400
S'0.1389801'
p675
sg402
S'0.6602306'
p676
sg404
S'0.3168437'
p677
sg406
S'0.1131190'
p678
sg408
S'0.6863142'
p679
sg410
S'0.7001660'
p680
sg412
S'0.6151949'
p681
sg414
S'0.6450720'
p682
ssg44
g223
sg46
g47
sg13
S'950.0'
p683
sg49
g417
sba(iDataStore
Experiment
p684
(dp685
g22
(dp686
g396
S'0.5938670'
p687
sg398
S'0.2846131'
p688
sg400
S'0.1181666'
p689
sg402
S'0.6695402'
p690
sg404
S'0.3340166'
p691
sg406
S'0.0780578'
p692
sg408
S'0.6785873'
p693
sg410
S'0.7702145'
p694
sg412
S'0.6823825'
p695
sg414
S'0.6068127'
p696
ssg44
g223
sg46
g47
sg13
S'1000.0'
p697
sg49
g417
sbasg44
g223
sg177
Nsg178
(lp698
g408
ag406
ag404
ag402
ag400
ag398
ag396
ag412
ag410
ag414
asg180
(lp699
S'Timeseries-Rep0.csv'
p700
asba(iDataStore
MicroarrayData
p701
(dp702
g18
(lp703
(iDataStore
Experiment
p704
(dp705
g22
(dp706
g396
S'0.5905584'
p707
sg398
S'0.2494241'
p708
sg400
S'0.1445523'
p709
sg402
S'0.5990709'
p710
sg404
S'0.3080785'
p711
sg406
S'0.1735119'
p712
sg408
S'0.6927804'
p713
sg410
S'0.6891143'
p714
sg412
S'0.6367970'
p715
sg414
S'0.6944974'
p716
ssg44
g223
sg46
g47
sg13
S'0.0'
p717
sg49
g417
sba(iDataStore
Experiment
p718
(dp719
g22
(dp720
g396
S'0.2199619'
p721
sg398
S'0.3952169'
p722
sg400
S'0.2136285'
p723
sg402
S'0.6576991'
p724
sg404
S'0.2815777'
p725
sg406
S'0.0954328'
p726
sg408
S'0.6137000'
p727
sg410
S'0.6843410'
p728
sg412
S'0.5711943'
p729
sg414
S'0.6816443'
p730
ssg44
g223
sg46
g47
sg13
S'50.0'
p731
sg49
g417
sba(iDataStore
Experiment
p732
(dp733
g22
(dp734
g396
S'0.1706594'
p735
sg398
S'0.3336192'
p736
sg400
S'0.2556762'
p737
sg402
S'0.6349119'
p738
sg404
S'0.2896261'
p739
sg406
S'0.0704157'
p740
sg408
S'0.5923916'
p741
sg410
S'0.6408686'
p742
sg412
S'0.7645988'
p743
sg414
S'0.6201303'
p744
ssg44
g223
sg46
g47
sg13
S'100.0'
p745
sg49
g417
sba(iDataStore
Experiment
p746
(dp747
g22
(dp748
g396
S'0.1213159'
p749
sg398
S'0.3849495'
p750
sg400
S'0.1315485'
p751
sg402
S'0.5846269'
p752
sg404
S'0.1935983'
p753
sg406
S'0.0880437'
p754
sg408
S'0.5868361'
p755
sg410
S'0.8166294'
p756
sg412
S'0.7072442'
p757
sg414
S'0.7047542'
p758
ssg44
g223
sg46
g47
sg13
S'150.0'
p759
sg49
g417
sba(iDataStore
Experiment
p760
(dp761
g22
(dp762
g396
S'0.0786808'
p763
sg398
S'0.3736593'
p764
sg400
S'0.1687147'
p765
sg402
S'0.4509727'
p766
sg404
S'0.2186433'
p767
sg406
S'0.1149911'
p768
sg408
S'0.6293309'
p769
sg410
S'0.8038210'
p770
sg412
S'0.6970827'
p771
sg414
S'0.6925731'
p772
ssg44
g223
sg46
g47
sg13
S'200.0'
p773
sg49
g417
sba(iDataStore
Experiment
p774
(dp775
g22
(dp776
g396
S'0.1242939'
p777
sg398
S'0.3834565'
p778
sg400
S'0.1772348'
p779
sg402
S'0.4333604'
p780
sg404
S'0.2137598'
p781
sg406
S'0.0990501'
p782
sg408
S'0.5170203'
p783
sg410
S'0.7563581'
p784
sg412
S'0.7901656'
p785
sg414
S'0.7286596'
p786
ssg44
g223
sg46
g47
sg13
S'250.0'
p787
sg49
g417
sba(iDataStore
Experiment
p788
(dp789
g22
(dp790
g396
S'0.1323223'
p791
sg398
S'0.4000143'
p792
sg400
S'0.2365102'
p793
sg402
S'0.3898388'
p794
sg404
S'0.2892190'
p795
sg406
S'0.1159865'
p796
sg408
S'0.4709636'
p797
sg410
S'0.7090849'
p798
sg412
S'0.6791003'
p799
sg414
S'0.8249540'
p800
ssg44
g223
sg46
g47
sg13
S'300.0'
p801
sg49
g417
sba(iDataStore
Experiment
p802
(dp803
g22
(dp804
g396
S'0.0792747'
p805
sg398
S'0.3912156'
p806
sg400
S'0.2065817'
p807
sg402
S'0.4384157'
p808
sg404
S'0.2997476'
p809
sg406
S'0.0802760'
p810
sg408
S'0.6269998'
p811
sg410
S'0.6641130'
p812
sg412
S'0.6322451'
p813
sg414
S'0.7280306'
p814
ssg44
g223
sg46
g47
sg13
S'350.0'
p815
sg49
g417
sba(iDataStore
Experiment
p816
(dp817
g22
(dp818
g396
S'0.1492018'
p819
sg398
S'0.2349554'
p820
sg400
S'0.1484264'
p821
sg402
S'0.3779466'
p822
sg404
S'0.2573068'
p823
sg406
S'0.1042932'
p824
sg408
S'0.5284701'
p825
sg410
S'0.7596715'
p826
sg412
S'0.7928320'
p827
sg414
S'0.7133538'
p828
ssg44
g223
sg46
g47
sg13
S'400.0'
p829
sg49
g417
sba(iDataStore
Experiment
p830
(dp831
g22
(dp832
g396
S'0.1158488'
p833
sg398
S'0.4213528'
p834
sg400
S'0.1235777'
p835
sg402
S'0.3494604'
p836
sg404
S'0.2196169'
p837
sg406
S'0.1482319'
p838
sg408
S'0.5110939'
p839
sg410
S'0.7145425'
p840
sg412
S'0.6740440'
p841
sg414
S'0.7374688'
p842
ssg44
g223
sg46
g47
sg13
S'450.0'
p843
sg49
g417
sba(iDataStore
Experiment
p844
(dp845
g22
(dp846
g396
S'0.1350158'
p847
sg398
S'0.4517705'
p848
sg400
S'0.2365731'
p849
sg402
S'0.4211469'
p850
sg404
S'0.3025012'
p851
sg406
S'0.1153365'
p852
sg408
S'0.4882966'
p853
sg410
S'0.7176833'
p854
sg412
S'0.6484841'
p855
sg414
S'0.6872276'
p856
ssg44
g223
sg46
g47
sg13
S'500.0'
p857
sg49
g417
sba(iDataStore
Experiment
p858
(dp859
g22
(dp860
g396
S'0.6042338'
p861
sg398
S'0.3075680'
p862
sg400
S'0.2487479'
p863
sg402
S'0.4513658'
p864
sg404
S'0.3245931'
p865
sg406
S'0.1181288'
p866
sg408
S'0.6433641'
p867
sg410
S'0.6728155'
p868
sg412
S'0.7092563'
p869
sg414
S'0.6264014'
p870
ssg44
g223
sg46
g47
sg13
S'550.0'
p871
sg49
g417
sba(iDataStore
Experiment
p872
(dp873
g22
(dp874
g396
S'0.6519328'
p875
sg398
S'0.3823430'
p876
sg400
S'0.1447856'
p877
sg402
S'0.6388667'
p878
sg404
S'0.3060205'
p879
sg406
S'0.1228048'
p880
sg408
S'0.6171846'
p881
sg410
S'0.8328277'
p882
sg412
S'0.8569027'
p883
sg414
S'0.6102972'
p884
ssg44
g223
sg46
g47
sg13
S'600.0'
p885
sg49
g417
sba(iDataStore
Experiment
p886
(dp887
g22
(dp888
g396
S'0.6791125'
p889
sg398
S'0.3415498'
p890
sg400
S'0.1544187'
p891
sg402
S'0.6134333'
p892
sg404
S'0.3987270'
p893
sg406
S'0.0804874'
p894
sg408
S'0.8024419'
p895
sg410
S'0.6930467'
p896
sg412
S'0.7222545'
p897
sg414
S'0.6109138'
p898
ssg44
g223
sg46
g47
sg13
S'650.0'
p899
sg49
g417
sba(iDataStore
Experiment
p900
(dp901
g22
(dp902
g396
S'0.5099839'
p903
sg398
S'0.3402294'
p904
sg400
S'0.1578423'
p905
sg402
S'0.6801495'
p906
sg404
S'0.3594883'
p907
sg406
S'0.0871222'
p908
sg408
S'0.7804539'
p909
sg410
S'0.6455296'
p910
sg412
S'0.7069292'
p911
sg414
S'0.7232683'
p912
ssg44
g223
sg46
g47
sg13
S'700.0'
p913
sg49
g417
sba(iDataStore
Experiment
p914
(dp915
g22
(dp916
g396
S'0.5312501'
p917
sg398
S'0.3014502'
p918
sg400
S'0.0912002'
p919
sg402
S'0.6614428'
p920
sg404
S'0.4407318'
p921
sg406
S'0.0996338'
p922
sg408
S'0.8290307'
p923
sg410
S'0.6898205'
p924
sg412
S'0.6374457'
p925
sg414
S'0.5949425'
p926
ssg44
g223
sg46
g47
sg13
S'750.0'
p927
sg49
g417
sba(iDataStore
Experiment
p928
(dp929
g22
(dp930
g396
S'0.3978822'
p931
sg398
S'0.3563181'
p932
sg400
S'0.1013723'
p933
sg402
S'0.6225854'
p934
sg404
S'0.3369789'
p935
sg406
S'0.0988457'
p936
sg408
S'0.7490433'
p937
sg410
S'0.7440107'
p938
sg412
S'0.6009584'
p939
sg414
S'0.7923625'
p940
ssg44
g223
sg46
g47
sg13
S'800.0'
p941
sg49
g417
sba(iDataStore
Experiment
p942
(dp943
g22
(dp944
g396
S'0.3892781'
p945
sg398
S'0.3467893'
p946
sg400
S'0.1361985'
p947
sg402
S'0.7599636'
p948
sg404
S'0.4387776'
p949
sg406
S'0.0482351'
p950
sg408
S'0.5887312'
p951
sg410
S'0.6533540'
p952
sg412
S'0.6715002'
p953
sg414
S'0.7493886'
p954
ssg44
g223
sg46
g47
sg13
S'850.0'
p955
sg49
g417
sba(iDataStore
Experiment
p956
(dp957
g22
(dp958
g396
S'0.4222378'
p959
sg398
S'0.3105481'
p960
sg400
S'0.1683970'
p961
sg402
S'0.5764897'
p962
sg404
S'0.3228902'
p963
sg406
S'0.1078080'
p964
sg408
S'0.6694072'
p965
sg410
S'0.6421272'
p966
sg412
S'0.7085699'
p967
sg414
S'0.6938667'
p968
ssg44
g223
sg46
g47
sg13
S'900.0'
p969
sg49
g417
sba(iDataStore
Experiment
p970
(dp971
g22
(dp972
g396
S'0.5092373'
p973
sg398
S'0.2960746'
p974
sg400
S'0.1180917'
p975
sg402
S'0.7964334'
p976
sg404
S'0.2685038'
p977
sg406
S'0.0819181'
p978
sg408
S'0.7164183'
p979
sg410
S'0.6454818'
p980
sg412
S'0.7121105'
p981
sg414
S'0.6612289'
p982
ssg44
g223
sg46
g47
sg13
S'950.0'
p983
sg49
g417
sba(iDataStore
Experiment
p984
(dp985
g22
(dp986
g396
S'0.5376463'
p987
sg398
S'0.2432311'
p988
sg400
S'0.1803657'
p989
sg402
S'0.6352872'
p990
sg404
S'0.3146458'
p991
sg406
S'0.1198640'
p992
sg408
S'0.8032117'
p993
sg410
S'0.6253106'
p994
sg412
S'0.6763547'
p995
sg414
S'0.5716938'
p996
ssg44
g223
sg46
g47
sg13
S'1000.0'
p997
sg49
g417
sbasg44
g223
sg177
Nsg178
(lp998
g408
ag406
ag404
ag402
ag400
ag398
ag396
ag412
ag410
ag414
asg180
(lp999
S'Timeseries-Rep1.csv'
p1000
asba(iDataStore
MicroarrayData
p1001
(dp1002
g18
(lp1003
(iDataStore
Experiment
p1004
(dp1005
g22
(dp1006
g396
S'0.5852446'
p1007
sg398
S'0.2777284'
p1008
sg400
S'0.1394119'
p1009
sg402
S'0.6290043'
p1010
sg404
S'0.4955336'
p1011
sg406
S'0.0965407'
p1012
sg408
S'0.7025546'
p1013
sg410
S'0.7189792'
p1014
sg412
S'0.6987308'
p1015
sg414
S'0.6317014'
p1016
ssg44
g223
sg46
g47
sg13
S'0.0'
p1017
sg49
g417
sba(iDataStore
Experiment
p1018
(dp1019
g22
(dp1020
g396
S'0.3879914'
p1021
sg398
S'0.3160889'
p1022
sg400
S'0.1601289'
p1023
sg402
S'0.6331020'
p1024
sg404
S'0.4120065'
p1025
sg406
S'0.0066399'
p1026
sg408
S'0.2670111'
p1027
sg410
S'0.8405381'
p1028
sg412
S'0.3125419'
p1029
sg414
S'0.7525926'
p1030
ssg44
g223
sg46
g47
sg13
S'50.0'
p1031
sg49
g417
sba(iDataStore
Experiment
p1032
(dp1033
g22
(dp1034
g396
S'0.5371867'
p1035
sg398
S'0.4121452'
p1036
sg400
S'0.3527526'
p1037
sg402
S'0.6388113'
p1038
sg404
S'0.3162661'
p1039
sg406
S'0.0002031'
p1040
sg408
S'0.1495577'
p1041
sg410
S'0.7847303'
p1042
sg412
S'0.2207124'
p1043
sg414
S'0.6308077'
p1044
ssg44
g223
sg46
g47
sg13
S'100.0'
p1045
sg49
g417
sba(iDataStore
Experiment
p1046
(dp1047
g22
(dp1048
g396
S'0.5854555'
p1049
sg398
S'0.4561672'
p1050
sg400
S'0.5828865'
p1051
sg402
S'0.5332911'
p1052
sg404
S'0.3444491'
p1053
sg406
S'0.0000726'
p1054
sg408
S'0.1258573'
p1055
sg410
S'0.6864760'
p1056
sg412
S'0.1641590'
p1057
sg414
S'0.6603441'
p1058
ssg44
g223
sg46
g47
sg13
S'150.0'
p1059
sg49
g417
sba(iDataStore
Experiment
p1060
(dp1061
g22
(dp1062
g396
S'0.4715633'
p1063
sg398
S'0.5160537'
p1064
sg400
S'0.6474004'
p1065
sg402
S'0.4870183'
p1066
sg404
S'0.3601180'
p1067
sg406
S'0.0007181'
p1068
sg408
S'0.1503708'
p1069
sg410
S'0.7514894'
p1070
sg412
S'0.1138825'
p1071
sg414
S'0.7220521'
p1072
ssg44
g223
sg46
g47
sg13
S'200.0'
p1073
sg49
g417
sba(iDataStore
Experiment
p1074
(dp1075
g22
(dp1076
g396
S'0.5616858'
p1077
sg398
S'0.5849437'
p1078
sg400
S'0.5962019'
p1079
sg402
S'0.3816565'
p1080
sg404
S'0.2514869'
p1081
sg406
S'0.0010901'
p1082
sg408
S'0.1147272'
p1083
sg410
S'0.7451011'
p1084
sg412
S'0.0875836'
p1085
sg414
S'0.9215333'
p1086
ssg44
g223
sg46
g47
sg13
S'250.0'
p1087
sg49
g417
sba(iDataStore
Experiment
p1088
(dp1089
g22
(dp1090
g396
S'0.5828932'
p1091
sg398
S'0.6962295'
p1092
sg400
S'0.7206053'
p1093
sg402
S'0.4027960'
p1094
sg404
S'0.4130228'
p1095
sg406
S'0.0006993'
p1096
sg408
S'0.1136885'
p1097
sg410
S'0.7346484'
p1098
sg412
S'0.1047608'
p1099
sg414
S'0.6120013'
p1100
ssg44
g223
sg46
g47
sg13
S'300.0'
p1101
sg49
g417
sba(iDataStore
Experiment
p1102
(dp1103
g22
(dp1104
g396
S'0.5699641'
p1105
sg398
S'0.6188064'
p1106
sg400
S'0.6110892'
p1107
sg402
S'0.4555527'
p1108
sg404
S'0.5144453'
p1109
sg406
S'0.0006402'
p1110
sg408
S'0.1074903'
p1111
sg410
S'0.7260995'
p1112
sg412
S'0.1494655'
p1113
sg414
S'0.7034582'
p1114
ssg44
g223
sg46
g47
sg13
S'350.0'
p1115
sg49
g417
sba(iDataStore
Experiment
p1116
(dp1117
g22
(dp1118
g396
S'0.5705248'
p1119
sg398
S'0.6340790'
p1120
sg400
S'0.7049432'
p1121
sg402
S'0.4184513'
p1122
sg404
S'0.3046374'
p1123
sg406
S'0.0000216'
p1124
sg408
S'0.0916218'
p1125
sg410
S'0.7072688'
p1126
sg412
S'0.1345381'
p1127
sg414
S'0.7037104'
p1128
ssg44
g223
sg46
g47
sg13
S'400.0'
p1129
sg49
g417
sba(iDataStore
Experiment
p1130
(dp1131
g22
(dp1132
g396
S'0.5182417'
p1133
sg398
S'0.4893698'
p1134
sg400
S'0.6032927'
p1135
sg402
S'0.4398207'
p1136
sg404
S'0.4381759'
p1137
sg406
S'0.0001071'
p1138
sg408
S'0.0704370'
p1139
sg410
S'0.7245269'
p1140
sg412
S'0.1445357'
p1141
sg414
S'0.6900767'
p1142
ssg44
g223
sg46
g47
sg13
S'450.0'
p1143
sg49
g417
sba(iDataStore
Experiment
p1144
(dp1145
g22
(dp1146
g396
S'0.5254869'
p1147
sg398
S'0.5912179'
p1148
sg400
S'0.6065379'
p1149
sg402
S'0.4081400'
p1150
sg404
S'0.4247121'
p1151
sg406
S'0.0000243'
p1152
sg408
S'0.1084545'
p1153
sg410
S'0.7796607'
p1154
sg412
S'0.1195000'
p1155
sg414
S'0.7214128'
p1156
ssg44
g223
sg46
g47
sg13
S'500.0'
p1157
sg49
g417
sba(iDataStore
Experiment
p1158
(dp1159
g22
(dp1160
g396
S'0.4837116'
p1161
sg398
S'0.5662445'
p1162
sg400
S'0.6220579'
p1163
sg402
S'0.4666379'
p1164
sg404
S'0.3493963'
p1165
sg406
S'0.1669844'
p1166
sg408
S'0.4934324'
p1167
sg410
S'0.7879295'
p1168
sg412
S'0.5461221'
p1169
sg414
S'0.7344458'
p1170
ssg44
g223
sg46
g47
sg13
S'550.0'
p1171
sg49
g417
sba(iDataStore
Experiment
p1172
(dp1173
g22
(dp1174
g396
S'0.5869444'
p1175
sg398
S'0.4739788'
p1176
sg400
S'0.3116094'
p1177
sg402
S'0.5659879'
p1178
sg404
S'0.2905074'
p1179
sg406
S'0.1396843'
p1180
sg408
S'0.6485525'
p1181
sg410
S'0.6549880'
p1182
sg412
S'0.6502586'
p1183
sg414
S'0.6450217'
p1184
ssg44
g223
sg46
g47
sg13
S'600.0'
p1185
sg49
g417
sba(iDataStore
Experiment
p1186
(dp1187
g22
(dp1188
g396
S'0.5316969'
p1189
sg398
S'0.3214644'
p1190
sg400
S'0.3052366'
p1191
sg402
S'0.5786856'
p1192
sg404
S'0.4188026'
p1193
sg406
S'0.0786818'
p1194
sg408
S'0.7971715'
p1195
sg410
S'0.6432834'
p1196
sg412
S'0.7105375'
p1197
sg414
S'0.7139627'
p1198
ssg44
g223
sg46
g47
sg13
S'650.0'
p1199
sg49
g417
sba(iDataStore
Experiment
p1200
(dp1201
g22
(dp1202
g396
S'0.4560579'
p1203
sg398
S'0.3322274'
p1204
sg400
S'0.1586621'
p1205
sg402
S'0.6022758'
p1206
sg404
S'0.4350727'
p1207
sg406
S'0.0780344'
p1208
sg408
S'0.5833888'
p1209
sg410
S'0.6150558'
p1210
sg412
S'0.6787980'
p1211
sg414
S'0.7626299'
p1212
ssg44
g223
sg46
g47
sg13
S'700.0'
p1213
sg49
g417
sba(iDataStore
Experiment
p1214
(dp1215
g22
(dp1216
g396
S'0.3600829'
p1217
sg398
S'0.3789285'
p1218
sg400
S'0.1446601'
p1219
sg402
S'0.6865068'
p1220
sg404
S'0.3151357'
p1221
sg406
S'0.1123633'
p1222
sg408
S'0.7644667'
p1223
sg410
S'0.7599346'
p1224
sg412
S'0.6422636'
p1225
sg414
S'0.7957661'
p1226
ssg44
g223
sg46
g47
sg13
S'750.0'
p1227
sg49
g417
sba(iDataStore
Experiment
p1228
(dp1229
g22
(dp1230
g396
S'0.5459900'
p1231
sg398
S'0.3403691'
p1232
sg400
S'0.1015360'
p1233
sg402
S'0.6589912'
p1234
sg404
S'0.3121278'
p1235
sg406
S'0.1890966'
p1236
sg408
S'0.7656012'
p1237
sg410
S'0.8074774'
p1238
sg412
S'0.8619677'
p1239
sg414
S'0.7599446'
p1240
ssg44
g223
sg46
g47
sg13
S'800.0'
p1241
sg49
g417
sba(iDataStore
Experiment
p1242
(dp1243
g22
(dp1244
g396
S'0.4768284'
p1245
sg398
S'0.3956457'
p1246
sg400
S'0.2198009'
p1247
sg402
S'0.6910229'
p1248
sg404
S'0.4633630'
p1249
sg406
S'0.1077332'
p1250
sg408
S'0.6111505'
p1251
sg410
S'0.6190746'
p1252
sg412
S'0.6286063'
p1253
sg414
S'0.6722002'
p1254
ssg44
g223
sg46
g47
sg13
S'850.0'
p1255
sg49
g417
sba(iDataStore
Experiment
p1256
(dp1257
g22
(dp1258
g396
S'0.4367724'
p1259
sg398
S'0.3303212'
p1260
sg400
S'0.1483400'
p1261
sg402
S'0.6404274'
p1262
sg404
S'0.3130161'
p1263
sg406
S'0.1118654'
p1264
sg408
S'0.6721184'
p1265
sg410
S'0.7121735'
p1266
sg412
S'0.7552463'
p1267
sg414
S'0.6523538'
p1268
ssg44
g223
sg46
g47
sg13
S'900.0'
p1269
sg49
g417
sba(iDataStore
Experiment
p1270
(dp1271
g22
(dp1272
g396
S'0.4847003'
p1273
sg398
S'0.3811676'
p1274
sg400
S'0.1128817'
p1275
sg402
S'0.6113299'
p1276
sg404
S'0.3330950'
p1277
sg406
S'0.1164068'
p1278
sg408
S'0.6289104'
p1279
sg410
S'0.7135124'
p1280
sg412
S'0.7976182'
p1281
sg414
S'0.7852974'
p1282
ssg44
g223
sg46
g47
sg13
S'950.0'
p1283
sg49
g417
sba(iDataStore
Experiment
p1284
(dp1285
g22
(dp1286
g396
S'0.5258812'
p1287
sg398
S'0.3700837'
p1288
sg400
S'0.1406588'
p1289
sg402
S'0.6687344'
p1290
sg404
S'0.3590816'
p1291
sg406
S'0.0879682'
p1292
sg408
S'0.7712319'
p1293
sg410
S'0.7878045'
p1294
sg412
S'0.7604233'
p1295
sg414
S'0.6290981'
p1296
ssg44
g223
sg46
g47
sg13
S'1000.0'
p1297
sg49
g417
sbasg44
g223
sg177
Nsg178
(lp1298
g408
ag406
ag404
ag402
ag400
ag398
ag396
ag412
ag410
ag414
asg180
(lp1299
S'Timeseries-Rep2.csv'
p1300
asba(iDataStore
MicroarrayData
p1301
(dp1302
g18
(lp1303
(iDataStore
Experiment
p1304
(dp1305
g22
(dp1306
g396
S'0.3970339'
p1307
sg398
S'0.2432843'
p1308
sg400
S'0.1237001'
p1309
sg402
S'0.7087402'
p1310
sg404
S'0.5393216'
p1311
sg406
S'0.1646974'
p1312
sg408
S'0.7291507'
p1313
sg410
S'0.6285854'
p1314
sg412
S'0.7599215'
p1315
sg414
S'0.6076601'
p1316
ssg44
g223
sg46
g47
sg13
S'0.0'
p1317
sg49
g417
sba(iDataStore
Experiment
p1318
(dp1319
g22
(dp1320
g396
S'0.1468781'
p1321
sg398
S'0.4088945'
p1322
sg400
S'0.1012508'
p1323
sg402
S'0.6874071'
p1324
sg404
S'0.3894485'
p1325
sg406
S'0.1803674'
p1326
sg408
S'0.5109302'
p1327
sg410
S'0.4169359'
p1328
sg412
S'0.3528068'
p1329
sg414
S'0.7657149'
p1330
ssg44
g223
sg46
g47
sg13
S'50.0'
p1331
sg49
g417
sba(iDataStore
Experiment
p1332
(dp1333
g22
(dp1334
g396
S'0.0264118'
p1335
sg398
S'0.4252275'
p1336
sg400
S'0.1486603'
p1337
sg402
S'0.5980135'
p1338
sg404
S'0.2565762'
p1339
sg406
S'0.1875477'
p1340
sg408
S'0.6097374'
p1341
sg410
S'0.4086711'
p1342
sg412
S'0.3565534'
p1343
sg414
S'0.8156564'
p1344
ssg44
g223
sg46
g47
sg13
S'100.0'
p1345
sg49
g417
sba(iDataStore
Experiment
p1346
(dp1347
g22
(dp1348
g396
S'0.0259651'
p1349
sg398
S'0.4733397'
p1350
sg400
S'0.1471183'
p1351
sg402
S'0.4758323'
p1352
sg404
S'0.1696391'
p1353
sg406
S'0.2070564'
p1354
sg408
S'0.7059362'
p1355
sg410
S'0.3558222'
p1356
sg412
S'0.2819844'
p1357
sg414
S'0.7042378'
p1358
ssg44
g223
sg46
g47
sg13
S'150.0'
p1359
sg49
g417
sba(iDataStore
Experiment
p1360
(dp1361
g22
(dp1362
g396
S'0.0067659'
p1363
sg398
S'0.5552323'
p1364
sg400
S'0.1409376'
p1365
sg402
S'0.3854643'
p1366
sg404
S'0.2447503'
p1367
sg406
S'0.2695352'
p1368
sg408
S'0.7791460'
p1369
sg410
S'0.4058957'
p1370
sg412
S'0.1862479'
p1371
sg414
S'0.6916045'
p1372
ssg44
g223
sg46
g47
sg13
S'200.0'
p1373
sg49
g417
sba(iDataStore
Experiment
p1374
(dp1375
g22
(dp1376
g396
S'0.0094517'
p1377
sg398
S'0.4274730'
p1378
sg400
S'0.0985869'
p1379
sg402
S'0.4492310'
p1380
sg404
S'0.1712229'
p1381
sg406
S'0.3182197'
p1382
sg408
S'0.7512179'
p1383
sg410
S'0.3565842'
p1384
sg412
S'0.2538905'
p1385
sg414
S'0.7226358'
p1386
ssg44
g223
sg46
g47
sg13
S'250.0'
p1387
sg49
g417
sba(iDataStore
Experiment
p1388
(dp1389
g22
(dp1390
g396
S'0.0019713'
p1391
sg398
S'0.5281481'
p1392
sg400
S'0.1500982'
p1393
sg402
S'0.3920308'
p1394
sg404
S'0.2081826'
p1395
sg406
S'0.2300156'
p1396
sg408
S'0.6662777'
p1397
sg410
S'0.2789396'
p1398
sg412
S'0.2450673'
p1399
sg414
S'0.8015413'
p1400
ssg44
g223
sg46
g47
sg13
S'300.0'
p1401
sg49
g417
sba(iDataStore
Experiment
p1402
(dp1403
g22
(dp1404
g396
S'0.0114260'
p1405
sg398
S'0.5760348'
p1406
sg400
S'0.1285197'
p1407
sg402
S'0.3937747'
p1408
sg404
S'0.2921507'
p1409
sg406
S'0.2564993'
p1410
sg408
S'0.6446435'
p1411
sg410
S'0.2805749'
p1412
sg412
S'0.1746718'
p1413
sg414
S'0.7041561'
p1414
ssg44
g223
sg46
g47
sg13
S'350.0'
p1415
sg49
g417
sba(iDataStore
Experiment
p1416
(dp1417
g22
(dp1418
g396
S'0.0138563'
p1419
sg398
S'0.5195734'
p1420
sg400
S'0.1167303'
p1421
sg402
S'0.5795062'
p1422
sg404
S'0.1989521'
p1423
sg406
S'0.2767497'
p1424
sg408
S'0.7309197'
p1425
sg410
S'0.3775839'
p1426
sg412
S'0.2548303'
p1427
sg414
S'0.7438145'
p1428
ssg44
g223
sg46
g47
sg13
S'400.0'
p1429
sg49
g417
sba(iDataStore
Experiment
p1430
(dp1431
g22
(dp1432
g396
S'0.0025197'
p1433
sg398
S'0.4616732'
p1434
sg400
S'0.1496491'
p1435
sg402
S'0.3893692'
p1436
sg404
S'0.2291561'
p1437
sg406
S'0.2384708'
p1438
sg408
S'0.7241511'
p1439
sg410
S'0.3453198'
p1440
sg412
S'0.1916132'
p1441
sg414
S'0.7157578'
p1442
ssg44
g223
sg46
g47
sg13
S'450.0'
p1443
sg49
g417
sba(iDataStore
Experiment
p1444
(dp1445
g22
(dp1446
g396
S'0.0070070'
p1447
sg398
S'0.4998435'
p1448
sg400
S'0.1109189'
p1449
sg402
S'0.2895560'
p1450
sg404
S'0.2398097'
p1451
sg406
S'0.2557487'
p1452
sg408
S'0.6861697'
p1453
sg410
S'0.3096857'
p1454
sg412
S'0.1959993'
p1455
sg414
S'0.6144597'
p1456
ssg44
g223
sg46
g47
sg13
S'500.0'
p1457
sg49
g417
sba(iDataStore
Experiment
p1458
(dp1459
g22
(dp1460
g396
S'0.5668736'
p1461
sg398
S'0.4044676'
p1462
sg400
S'0.1082641'
p1463
sg402
S'0.4475400'
p1464
sg404
S'0.2068039'
p1465
sg406
S'0.1897509'
p1466
sg408
S'0.6640881'
p1467
sg410
S'0.6214781'
p1468
sg412
S'0.6426656'
p1469
sg414
S'0.5714713'
p1470
ssg44
g223
sg46
g47
sg13
S'550.0'
p1471
sg49
g417
sba(iDataStore
Experiment
p1472
(dp1473
g22
(dp1474
g396
S'0.5977940'
p1475
sg398
S'0.4860355'
p1476
sg400
S'0.1010354'
p1477
sg402
S'0.5663255'
p1478
sg404
S'0.3196045'
p1479
sg406
S'0.1523764'
p1480
sg408
S'0.6374970'
p1481
sg410
S'0.6409856'
p1482
sg412
S'0.7231546'
p1483
sg414
S'0.6966782'
p1484
ssg44
g223
sg46
g47
sg13
S'600.0'
p1485
sg49
g417
sba(iDataStore
Experiment
p1486
(dp1487
g22
(dp1488
g396
S'0.6950467'
p1489
sg398
S'0.4614339'
p1490
sg400
S'0.1013164'
p1491
sg402
S'0.6595041'
p1492
sg404
S'0.4068650'
p1493
sg406
S'0.1338911'
p1494
sg408
S'0.7156959'
p1495
sg410
S'0.6558541'
p1496
sg412
S'0.7188045'
p1497
sg414
S'0.7758014'
p1498
ssg44
g223
sg46
g47
sg13
S'650.0'
p1499
sg49
g417
sba(iDataStore
Experiment
p1500
(dp1501
g22
(dp1502
g396
S'0.5087046'
p1503
sg398
S'0.3561251'
p1504
sg400
S'0.1462886'
p1505
sg402
S'0.6690486'
p1506
sg404
S'0.4325222'
p1507
sg406
S'0.1458993'
p1508
sg408
S'0.6367377'
p1509
sg410
S'0.7491581'
p1510
sg412
S'0.6382091'
p1511
sg414
S'0.7329435'
p1512
ssg44
g223
sg46
g47
sg13
S'700.0'
p1513
sg49
g417
sba(iDataStore
Experiment
p1514
(dp1515
g22
(dp1516
g396
S'0.4667717'
p1517
sg398
S'0.3473546'
p1518
sg400
S'0.1460243'
p1519
sg402
S'0.5726726'
p1520
sg404
S'0.4342745'
p1521
sg406
S'0.1471605'
p1522
sg408
S'0.6861329'
p1523
sg410
S'0.7790399'
p1524
sg412
S'0.6700589'
p1525
sg414
S'0.7393787'
p1526
ssg44
g223
sg46
g47
sg13
S'750.0'
p1527
sg49
g417
sba(iDataStore
Experiment
p1528
(dp1529
g22
(dp1530
g396
S'0.5446558'
p1531
sg398
S'0.2765572'
p1532
sg400
S'0.1294852'
p1533
sg402
S'0.7432860'
p1534
sg404
S'0.4384850'
p1535
sg406
S'0.1238498'
p1536
sg408
S'0.7440202'
p1537
sg410
S'0.6396986'
p1538
sg412
S'0.7585209'
p1539
sg414
S'0.6684210'
p1540
ssg44
g223
sg46
g47
sg13
S'800.0'
p1541
sg49
g417
sba(iDataStore
Experiment
p1542
(dp1543
g22
(dp1544
g396
S'0.4650374'
p1545
sg398
S'0.3447260'
p1546
sg400
S'0.0999712'
p1547
sg402
S'0.5678651'
p1548
sg404
S'0.4268514'
p1549
sg406
S'0.0662469'
p1550
sg408
S'0.8967149'
p1551
sg410
S'0.6389196'
p1552
sg412
S'0.7023964'
p1553
sg414
S'0.6975826'
p1554
ssg44
g223
sg46
g47
sg13
S'850.0'
p1555
sg49
g417
sba(iDataStore
Experiment
p1556
(dp1557
g22
(dp1558
g396
S'0.4798852'
p1559
sg398
S'0.3897331'
p1560
sg400
S'0.1245277'
p1561
sg402
S'0.6886540'
p1562
sg404
S'0.4127351'
p1563
sg406
S'0.0664624'
p1564
sg408
S'0.7564360'
p1565
sg410
S'0.7970938'
p1566
sg412
S'0.6957703'
p1567
sg414
S'0.6599207'
p1568
ssg44
g223
sg46
g47
sg13
S'900.0'
p1569
sg49
g417
sba(iDataStore
Experiment
p1570
(dp1571
g22
(dp1572
g396
S'0.4785983'
p1573
sg398
S'0.2650917'
p1574
sg400
S'0.0947804'
p1575
sg402
S'0.5188151'
p1576
sg404
S'0.3728141'
p1577
sg406
S'0.0715481'
p1578
sg408
S'0.6792970'
p1579
sg410
S'0.5806831'
p1580
sg412
S'0.7806962'
p1581
sg414
S'0.7913360'
p1582
ssg44
g223
sg46
g47
sg13
S'950.0'
p1583
sg49
g417
sba(iDataStore
Experiment
p1584
(dp1585
g22
(dp1586
g396
S'0.3951515'
p1587
sg398
S'0.3540091'
p1588
sg400
S'0.1239435'
p1589
sg402
S'0.8028182'
p1590
sg404
S'0.3585051'
p1591
sg406
S'0.0930319'
p1592
sg408
S'0.6020569'
p1593
sg410
S'0.7304382'
p1594
sg412
S'0.7849719'
p1595
sg414
S'0.6863379'
p1596
ssg44
g223
sg46
g47
sg13
S'1000.0'
p1597
sg49
g417
sbasg44
g223
sg177
Nsg178
(lp1598
g408
ag406
ag404
ag402
ag400
ag398
ag396
ag412
ag410
ag414
asg180
(lp1599
g417
asbasS'wt_storage'
p1600
(iDataStore
MicroarrayData
p1601
(dp1602
g18
(lp1603
(iDataStore
Experiment
p1604
(dp1605
g22
(dp1606
S'G7'
p1607
S'0.4967330'
p1608
sS'G6'
p1609
S'0.3258775'
p1610
sS'G5'
p1611
S'0.1464854'
p1612
sS'G4'
p1613
S'0.6047832'
p1614
sS'G3'
p1615
S'0.3287936'
p1616
sS'G2'
p1617
S'0.1231706'
p1618
sS'G1'
p1619
S'0.6046824'
p1620
sS'G9'
p1621
S'0.6140849'
p1622
sS'G8'
p1623
S'0.6496271'
p1624
sS'G10'
p1625
S'0.7481792'
p1626
ssg44
g233
sg46
g47
sg13
g48
sg49
g256
sbasg44
g233
sg177
Nsg178
(lp1627
g1619
ag1617
ag1615
ag1613
ag1611
ag1609
ag1607
ag1623
ag1621
ag1625
asg180
(lp1628
S'inSilico_size10_1_wildtype.tsv'
p1629
asbsS'alg_name'
p1630
S'tlclr'
p1631
sS'network'
p1632
(iNetwork
Network
p1633
(dp1634
S'binary'
p1635
I00
sg1632
(dp1636
g396
(dp1637
g396
F0.0
sg398
F0.0861318468505068
sg400
F0.0
sg402
F0.529114588151426
sg404
F2.613633388498
sg406
F0.518506182812554
sg408
F0.271974565012903
sg410
F1.39167692727925
sg412
F0.591356509458934
sg414
F1.4315068711799
ssg398
(dp1638
g396
F0.239409313976159
sg398
F0.0
sg400
F0.0
sg402
F0.0
sg404
F0.0
sg406
F1.74956854452405
sg408
F0.0
sg410
F0.116673046700694
sg412
F2.15355946799795
sg414
F0.0
ssg400
(dp1639
g396
F0.126694650036606
sg398
F0.0
sg400
F0.0
sg402
F0.0
sg404
F0.0
sg406
F0.302728243976596
sg408
F3.51922845943283
sg410
F0.0
sg412
F0.030355803074485
sg414
F0.0
ssg402
(dp1640
g396
F1.76929965159965
sg398
F0.0
sg400
F0.140735212560797
sg402
F0.0
sg404
F1.05289632935023
sg406
F0.0
sg408
F0.649135983465023
sg410
F0.0
sg412
F0.276237686236518
sg414
F0.17862112079564
ssg404
(dp1641
g396
F2.82345755703998
sg398
F0.0
sg400
F0.0
sg402
F0.373627085538744
sg404
F0.0
sg406
F0.0
sg408
F0.0
sg410
F0.700328166909384
sg412
F0.113356633654145
sg414
F0.0
ssg406
(dp1642
g396
F0.84049955205541
sg398
F0.835086915248636
sg400
F0.0
sg402
F0.0
sg404
F0.0321415835012626
sg406
F0.0
sg408
F0.1173325530705
sg410
F1.20373345187044
sg412
F2.47257498769432
sg414
F0.0
ssg408
(dp1643
g396
F1.06056709335669
sg398
F0.0
sg400
F2.99790306823415
sg402
F0.193397391770416
sg404
F0.211133074675112
sg406
F0.296822296362507
sg408
F0.0
sg410
F0.0
sg412
F0.0
sg414
F0.0
ssg410
(dp1644
g396
F1.73666923217018
sg398
F0.0
sg400
F0.0
sg402
F0.0
sg404
F0.35598607350391
sg406
F1.21307551428343
sg408
F0.0
sg410
F0.0
sg412
F1.05529042656707
sg414
F1.35065672956011
ssg412
(dp1645
g396
F0.553186548189973
sg398
F0.9054926543943
sg400
F0.0
sg402
F0.0
sg404
F0.0
sg406
F2.57312250105428
sg408
F0.0
sg410
F0.867082541490718
sg412
F0.0
sg414
F0.0
ssg414
(dp1646
g396
F0.223702070459377
sg398
F0.0
sg400
F0.647120065434047
sg402
F0.0
sg404
F0.0
sg406
F0.469055272934251
sg408
F1.36828557370811
sg410
F0.844007343554876
sg412
F0.0
sg414
F0.0
sssS'cutoff'
p1647
I0
sS'signed'
p1648
I00
sS'original_network'
p1649
(lp1650
(lp1651
g48
aS'0.296822296362507'
p1652
aS'0.211133074675112'
p1653
aS'0.193397391770416'
p1654
aS'2.99790306823415'
p1655
ag48
aS'1.06056709335669'
p1656
ag48
ag48
ag48
aa(lp1657
S'0.1173325530705'
p1658
ag48
aS'0.0321415835012626'
p1659
ag48
ag48
aS'0.835086915248636'
p1660
aS'0.84049955205541'
p1661
aS'2.47257498769432'
p1662
aS'1.20373345187044'
p1663
ag48
aa(lp1664
g48
ag48
ag48
aS'0.373627085538744'
p1665
ag48
ag48
aS'2.82345755703998'
p1666
aS'0.113356633654145'
p1667
aS'0.700328166909384'
p1668
ag48
aa(lp1669
S'0.649135983465023'
p1670
ag48
aS'1.05289632935023'
p1671
ag48
aS'0.140735212560797'
p1672
ag48
aS'1.76929965159965'
p1673
aS'0.276237686236518'
p1674
ag48
aS'0.17862112079564'
p1675
aa(lp1676
S'3.51922845943283'
p1677
aS'0.302728243976596'
p1678
ag48
ag48
ag48
ag48
aS'0.126694650036606'
p1679
aS'0.030355803074485'
p1680
ag48
ag48
aa(lp1681
g48
aS'1.74956854452405'
p1682
ag48
ag48
ag48
ag48
aS'0.239409313976159'
p1683
aS'2.15355946799795'
p1684
aS'0.116673046700694'
p1685
ag48
aa(lp1686
S'0.271974565012903'
p1687
aS'0.518506182812554'
p1688
aS'2.613633388498'
p1689
aS'0.529114588151426'
p1690
ag48
aS'0.0861318468505068'
p1691
ag48
aS'0.591356509458934'
p1692
aS'1.39167692727925'
p1693
aS'1.4315068711799'
p1694
aa(lp1695
g48
aS'2.57312250105428'
p1696
ag48
ag48
ag48
aS'0.9054926543943'
p1697
aS'0.553186548189973'
p1698
ag48
aS'0.867082541490718'
p1699
ag48
aa(lp1700
g48
aS'1.21307551428343'
p1701
aS'0.35598607350391'
p1702
ag48
ag48
ag48
aS'1.73666923217018'
p1703
aS'1.05529042656707'
p1704
ag48
aS'1.35065672956011'
p1705
aa(lp1706
S'1.36828557370811'
p1707
aS'0.469055272934251'
p1708
ag48
ag48
aS'0.647120065434047'
p1709
ag48
aS'0.223702070459377'
p1710
ag48
aS'0.844007343554876'
p1711
ag48
aasS'thresh'
p1712
I0
sg178
g698
sbsg280
S'/Users/jesse/Workspace/School/MastersThesis/Program/output//TLCLR-DFG4grn-dream410-2011-12-15_01.35.30//TLCLR_No_KD//tlclr_program/'
p1713
sg212
g213
sS'other_storage'
p1714
Nsg178
g698
sS'cwd'
p1715
g1713
sg216
g217
sbsS'id'
p1716
I1
sg183
g184
sba(iJobManager
Job
p1717
(dp1718
g3
g4
sg5
(itlclr
TLCLR
p1719
(dp1720
g8
Nsg9
g10
sg11
S'/Users/jesse/Workspace/School/MastersThesis/Program/output//TLCLR-DFG4grn-dream410-2011-12-15_01.35.30//TLCLR_All_Data//data/'
p1721
sg13
S'TLCLR_All_Data'
p1722
sg15
g16
sg183
g184
sg388
g389
sg1600
g1601
sg1630
g1631
sg1632
(iNetwork
Network
p1723
(dp1724
g1635
I00
sg1632
(dp1725
g396
(dp1726
g396
F0.0
sg398
F0.0
sg400
F0.0103263539837272
sg402
F0.232602612247188
sg404
F1.18783495058242
sg406
F1.18934304757546
sg408
F0.211578162837216
sg410
F1.52265825074289
sg412
F0.523408780562091
sg414
F0.369555934218736
ssg398
(dp1727
g396
F0.176242567218853
sg398
F0.0
sg400
F0.0
sg402
F0.0
sg404
F0.0
sg406
F1.69284268731542
sg408
F0.0
sg410
F0.261560768761379
sg412
F2.1296035269581
sg414
F0.246099514362104
ssg400
(dp1728
g396
F0.292904972110277
sg398
F0.0
sg400
F0.0
sg402
F0.76911217119674
sg404
F0.0
sg406
F0.476939338078334
sg408
F3.42253292974
sg410
F0.0
sg412
F0.0
sg414
F0.0
ssg402
(dp1729
g396
F1.90916370588238
sg398
F0.0
sg400
F0.0422569492106475
sg402
F0.0
sg404
F0.855276819142146
sg406
F0.330236343821829
sg408
F0.10689107139071
sg410
F0.0901685117429207
sg412
F0.552162603642455
sg414
F0.0384465751548777
ssg404
(dp1730
g396
F2.13282769912995
sg398
F0.0
sg400
F0.0
sg402
F0.0
sg404
F0.0
sg406
F0.317072120953665
sg408
F0.137786076334993
sg410
F0.979302572399294
sg412
F0.0593553869059105
sg414
F0.0
ssg406
(dp1731
g396
F1.27375353475652
sg398
F1.53977339890354
sg400
F0.19940316914711
sg402
F0.048662727503014
sg404
F0.373201241982169
sg406
F0.0
sg408
F0.311474096969876
sg410
F1.11751508838608
sg412
F2.23739679763867
sg414
F0.292690326660019
ssg408
(dp1732
g396
F0.936997463324584
sg398
F0.0
sg400
F2.81784893758364
sg402
F0.408831331543434
sg404
F0.0
sg406
F0.774852388925494
sg408
F0.0
sg410
F0.0
sg412
F0.0
sg414
F0.0
ssg410
(dp1733
g396
F1.62777507835298
sg398
F0.0
sg400
F0.0
sg402
F0.0
sg404
F0.421115412021878
sg406
F1.17341758843252
sg408
F0.0
sg410
F0.0
sg412
F0.958439704601807
sg414
F1.75059701381293
ssg412
(dp1734
g396
F0.135098192980508
sg398
F1.27689161391283
sg400
F0.00518908136703301
sg402
F0.0
sg404
F0.0
sg406
F2.26100518994833
sg408
F0.0
sg410
F0.352413096674613
sg412
F0.0
sg414
F0.0901011759615192
ssg414
(dp1735
g396
F0.377586578646711
sg398
F0.0
sg400
F0.0
sg402
F0.61441650596908
sg404
F0.0
sg406
F0.0
sg408
F0.0
sg410
F2.28104984197077
sg412
F0.0
sg414
F0.0
sssg1647
I0
sg1648
I00
sg1649
(lp1736
(lp1737
g48
aS'0.774852388925494'
p1738
ag48
aS'0.408831331543434'
p1739
aS'2.81784893758364'
p1740
ag48
aS'0.936997463324584'
p1741
ag48
ag48
ag48
aa(lp1742
S'0.311474096969876'
p1743
ag48
aS'0.373201241982169'
p1744
aS'0.048662727503014'
p1745
aS'0.19940316914711'
p1746
aS'1.53977339890354'
p1747
aS'1.27375353475652'
p1748
aS'2.23739679763867'
p1749
aS'1.11751508838608'
p1750
aS'0.292690326660019'
p1751
aa(lp1752
S'0.137786076334993'
p1753
aS'0.317072120953665'
p1754
ag48
ag48
ag48
ag48
aS'2.13282769912995'
p1755
aS'0.0593553869059105'
p1756
aS'0.979302572399294'
p1757
ag48
aa(lp1758
S'0.10689107139071'
p1759
aS'0.330236343821829'
p1760
aS'0.855276819142146'
p1761
ag48
aS'0.0422569492106475'
p1762
ag48
aS'1.90916370588238'
p1763
aS'0.552162603642455'
p1764
aS'0.0901685117429207'
p1765
aS'0.0384465751548777'
p1766
aa(lp1767
S'3.42253292974'
p1768
aS'0.476939338078334'
p1769
ag48
aS'0.76911217119674'
p1770
ag48
ag48
aS'0.292904972110277'
p1771
ag48
ag48
ag48
aa(lp1772
g48
aS'1.69284268731542'
p1773
ag48
ag48
ag48
ag48
aS'0.176242567218853'
p1774
aS'2.1296035269581'
p1775
aS'0.261560768761379'
p1776
aS'0.246099514362104'
p1777
aa(lp1778
S'0.211578162837216'
p1779
aS'1.18934304757546'
p1780
aS'1.18783495058242'
p1781
aS'0.232602612247188'
p1782
aS'0.0103263539837272'
p1783
ag48
ag48
aS'0.523408780562091'
p1784
aS'1.52265825074289'
p1785
aS'0.369555934218736'
p1786
aa(lp1787
g48
aS'2.26100518994833'
p1788
ag48
ag48
aS'0.00518908136703301'
p1789
aS'1.27689161391283'
p1790
aS'0.135098192980508'
p1791
ag48
aS'0.352413096674613'
p1792
aS'0.0901011759615192'
p1793
aa(lp1794
g48
aS'1.17341758843252'
p1795
aS'0.421115412021878'
p1796
ag48
ag48
ag48
aS'1.62777507835298'
p1797
aS'0.958439704601807'
p1798
ag48
aS'1.75059701381293'
p1799
aa(lp1800
g48
ag48
ag48
aS'0.61441650596908'
p1801
ag48
ag48
aS'0.377586578646711'
p1802
ag48
aS'2.28104984197077'
p1803
ag48
aasg1712
I0
sg178
g698
sbsg280
S'/Users/jesse/Workspace/School/MastersThesis/Program/output//TLCLR-DFG4grn-dream410-2011-12-15_01.35.30//TLCLR_All_Data//tlclr_program/'
p1804
sg212
S'/Users/jesse/Workspace/School/MastersThesis/Program/output//TLCLR-DFG4grn-dream410-2011-12-15_01.35.30//TLCLR_All_Data//log/'
p1805
sg1714
(iDataStore
MicroarrayData
p1806
(dp1807
g18
(lp1808
(iDataStore
Experiment
p1809
(dp1810
g22
(dp1811
S'G7'
p1812
S'0.6244579'
p1813
sS'G6'
p1814
S'0.3160643'
p1815
sS'G5'
p1816
S'0.3456091'
p1817
sS'G4'
p1818
S'0.6396958'
p1819
sS'G3'
p1820
S'0.3478002'
p1821
sS'G2'
p1822
S'0.0722337'
p1823
sS'G1'
p1824
S'0.3898410'
p1825
sS'G9'
p1826
S'0.6661835'
p1827
sS'G8'
p1828
S'0.6492305'
p1829
sS'G10'
p1830
S'0.6923661'
p1831
ssg44
S'knockdown'
p1832
sg46
g47
sg13
g48
sg49
g313
sba(iDataStore
Experiment
p1833
(dp1834
g22
(dp1835
g1812
S'0.4636410'
p1836
sg1814
S'0.3326363'
p1837
sg1816
S'0.1485260'
p1838
sg1818
S'0.6607454'
p1839
sg1820
S'0.4121334'
p1840
sg1822
S'0.0357751'
p1841
sg1824
S'0.8357763'
p1842
sg1826
S'0.7763790'
p1843
sg1828
S'0.8164285'
p1844
sg1830
S'0.5841345'
p1845
ssg44
g1832
sg46
g47
sg13
g64
sg49
g313
sba(iDataStore
Experiment
p1846
(dp1847
g22
(dp1848
g1812
S'0.5354631'
p1849
sg1814
S'0.2568047'
p1850
sg1816
S'0.1658057'
p1851
sg1818
S'0.7067496'
p1852
sg1820
S'0.2647904'
p1853
sg1822
S'0.0840938'
p1854
sg1824
S'0.6812331'
p1855
sg1826
S'0.6845420'
p1856
sg1828
S'0.7055173'
p1857
sg1830
S'0.7791802'
p1858
ssg44
g1832
sg46
g47
sg13
g78
sg49
g313
sba(iDataStore
Experiment
p1859
(dp1860
g22
(dp1861
g1812
S'0.4754313'
p1862
sg1814
S'0.2900926'
p1863
sg1816
S'0.0742647'
p1864
sg1818
S'0.4466983'
p1865
sg1820
S'0.4119282'
p1866
sg1822
S'0.0607266'
p1867
sg1824
S'0.6802011'
p1868
sg1826
S'0.6775331'
p1869
sg1828
S'0.5998749'
p1870
sg1830
S'0.7786995'
p1871
ssg44
g1832
sg46
g47
sg13
g92
sg49
g313
sba(iDataStore
Experiment
p1872
(dp1873
g22
(dp1874
g1812
S'0.4780143'
p1875
sg1814
S'0.2532243'
p1876
sg1816
S'0.1224172'
p1877
sg1818
S'0.7210109'
p1878
sg1820
S'0.4103195'
p1879
sg1822
S'0.0750232'
p1880
sg1824
S'0.6363000'
p1881
sg1826
S'0.6573481'
p1882
sg1828
S'0.6185092'
p1883
sg1830
S'0.6908296'
p1884
ssg44
g1832
sg46
g47
sg13
g106
sg49
g313
sba(iDataStore
Experiment
p1885
(dp1886
g22
(dp1887
g1812
S'0.5961106'
p1888
sg1814
S'0.1630253'
p1889
sg1816
S'0.1544049'
p1890
sg1818
S'0.6523474'
p1891
sg1820
S'0.3249278'
p1892
sg1822
S'0.1150666'
p1893
sg1824
S'0.6742165'
p1894
sg1826
S'0.7959911'
p1895
sg1828
S'0.7112882'
p1896
sg1830
S'0.6985576'
p1897
ssg44
g1832
sg46
g47
sg13
g120
sg49
g313
sba(iDataStore
Experiment
p1898
(dp1899
g22
(dp1900
g1812
S'0.3586357'
p1901
sg1814
S'0.2745215'
p1902
sg1816
S'0.1092644'
p1903
sg1818
S'0.5218381'
p1904
sg1820
S'0.2482135'
p1905
sg1822
S'0.1163645'
p1906
sg1824
S'0.7705951'
p1907
sg1826
S'0.6551592'
p1908
sg1828
S'0.6390914'
p1909
sg1830
S'0.6830314'
p1910
ssg44
g1832
sg46
g47
sg13
g134
sg49
g313
sba(iDataStore
Experiment
p1911
(dp1912
g22
(dp1913
g1812
S'0.4134679'
p1914
sg1814
S'0.5216254'
p1915
sg1816
S'0.1001786'
p1916
sg1818
S'0.6765084'
p1917
sg1820
S'0.5012037'
p1918
sg1822
S'0.1783586'
p1919
sg1824
S'0.8163943'
p1920
sg1826
S'0.6653574'
p1921
sg1828
S'0.3217026'
p1922
sg1830
S'0.6734377'
p1923
ssg44
g1832
sg46
g47
sg13
g148
sg49
g313
sba(iDataStore
Experiment
p1924
(dp1925
g22
(dp1926
g1812
S'0.6016538'
p1927
sg1814
S'0.2276353'
p1928
sg1816
S'0.1153215'
p1929
sg1818
S'0.7156928'
p1930
sg1820
S'0.4137001'
p1931
sg1822
S'0.1089892'
p1932
sg1824
S'0.7477993'
p1933
sg1826
S'0.4156160'
p1934
sg1828
S'0.7493981'
p1935
sg1830
S'0.6208126'
p1936
ssg44
g1832
sg46
g47
sg13
g162
sg49
g313
sba(iDataStore
Experiment
p1937
(dp1938
g22
(dp1939
g1812
S'0.6386655'
p1940
sg1814
S'0.3004501'
p1941
sg1816
S'0.0827235'
p1942
sg1818
S'0.7476172'
p1943
sg1820
S'0.4537613'
p1944
sg1822
S'0.1386172'
p1945
sg1824
S'0.6891057'
p1946
sg1826
S'0.8119234'
p1947
sg1828
S'0.6910927'
p1948
sg1830
S'0.2645752'
p1949
ssg44
g1832
sg46
g47
sg13
g176
sg49
g313
sbasg44
g1832
sg177
Nsg178
(lp1950
g1824
ag1822
ag1820
ag1818
ag1816
ag1814
ag1812
ag1828
ag1826
ag1830
asg180
(lp1951
S'inSilico_size10_1_knockdowns.tsv'
p1952
asbsg178
g698
sg1715
g1804
sg216
S'/Users/jesse/Workspace/School/MastersThesis/Program/output//TLCLR-DFG4grn-dream410-2011-12-15_01.35.30//TLCLR_All_Data/'
p1953
sbsg1716
I0
sg183
g184
sba(lp1954
(S'TLCLR-Top_20_Edges'
p1955
(dp1956
S'tn'
p1957
I73
sS'fp'
p1958
I12
sS'fn'
p1959
I7
sS'specificity'
p1960
F0.8588235294117647
sS'recall'
p1961
F0.5333333333333333
sS'sensitivity'
p1962
F0.5333333333333333
sS'precision'
p1963
F0.4
sS'tp'
p1964
I8
sS'accuracy'
p1965
F0.81
stp1966
a(S'TLCLR-Top_15_Edges'
p1967
(dp1968
g1957
I76
sg1958
I9
sg1959
I9
sg1960
F0.8941176470588236
sg1961
F0.4
sg1962
F0.4
sg1963
F0.4
sg1964
I6
sg1965
F0.82
stp1969
a(S'TLCLR-Top_60_Edges'
p1970
(dp1971
g1957
I47
sg1958
I38
sg1959
I2
sg1960
F0.5529411764705883
sg1961
F0.8666666666666667
sg1962
F0.8666666666666667
sg1963
F0.2549019607843137
sg1964
I13
sg1965
F0.6
stp1972
a(S'TLCLR-Top_150_Edges'
p1973
(dp1974
g1957
I47
sg1958
I38
sg1959
I2
sg1960
F0.5529411764705883
sg1961
F0.8666666666666667
sg1962
F0.8666666666666667
sg1963
F0.2549019607843137
sg1964
I13
sg1965
F0.6
stp1975
a(S'TLCLR-Top_50_Edges'
p1976
(dp1977
g1957
I48
sg1958
I37
sg1959
I2
sg1960
F0.5647058823529412
sg1961
F0.8666666666666667
sg1962
F0.8666666666666667
sg1963
F0.26
sg1964
I13
sg1965
F0.61
stp1978
a(S'TLCLR-Top_30_Edges'
p1979
(dp1980
g1957
I64
sg1958
I21
sg1959
I6
sg1960
F0.7529411764705882
sg1961
F0.6
sg1962
F0.6
sg1963
F0.3
sg1964
I9
sg1965
F0.73
stp1981
a(S'TLCLR-Top_300_Edges'
p1982
(dp1983
g1957
I47
sg1958
I38
sg1959
I2
sg1960
F0.5529411764705883
sg1961
F0.8666666666666667
sg1962
F0.8666666666666667
sg1963
F0.2549019607843137
sg1964
I13
sg1965
F0.6
stp1984
a(S'TLCLR-Top_20_Edges'
p1985
(dp1986
g1957
I72
sg1958
I13
sg1959
I8
sg1960
F0.8470588235294118
sg1961
F0.4666666666666667
sg1962
F0.4666666666666667
sg1963
F0.35
sg1964
I7
sg1965
F0.79
stp1987
a(S'TLCLR-Top_15_Edges'
p1988
(dp1989
g1957
I76
sg1958
I9
sg1959
I9
sg1960
F0.8941176470588236
sg1961
F0.4
sg1962
F0.4
sg1963
F0.4
sg1964
I6
sg1965
F0.82
stp1990
a(S'TLCLR-Top_60_Edges'
p1991
(dp1992
g1957
I40
sg1958
I45
sg1959
I3
sg1960
F0.47058823529411764
sg1961
F0.8
sg1962
F0.8
sg1963
F0.21052631578947367
sg1964
I12
sg1965
F0.52
stp1993
a(S'TLCLR-Top_150_Edges'
p1994
(dp1995
g1957
I40
sg1958
I45
sg1959
I3
sg1960
F0.47058823529411764
sg1961
F0.8
sg1962
F0.8
sg1963
F0.21052631578947367
sg1964
I12
sg1965
F0.52
stp1996
a(S'TLCLR-Top_50_Edges'
p1997
(dp1998
g1957
I47
sg1958
I38
sg1959
I3
sg1960
F0.5529411764705883
sg1961
F0.8
sg1962
F0.8
sg1963
F0.24
sg1964
I12
sg1965
F0.59
stp1999
a(S'TLCLR-Top_30_Edges'
p2000
(dp2001
g1957
I65
sg1958
I20
sg1959
I5
sg1960
F0.7647058823529411
sg1961
F0.6666666666666666
sg1962
F0.6666666666666666
sg1963
F0.3333333333333333
sg1964
I10
sg1965
F0.75
stp2002
a(S'TLCLR-Top_300_Edges'
p2003
(dp2004
g1957
I40
sg1958
I45
sg1959
I3
sg1960
F0.47058823529411764
sg1961
F0.8
sg1962
F0.8
sg1963
F0.21052631578947367
sg1964
I12
sg1965
F0.52
stp2005
a(g14
(dp2006
g1957
I47
sg1958
I38
sg1959
I2
sg1960
F0.5529411764705883
sg1961
F0.8666666666666667
sg1962
F0.8666666666666667
sg1963
F0.2549019607843137
sg1964
I13
sg1965
F0.6
stp2007
a(g1722
(dp2008
g1957
I40
sg1958
I45
sg1959
I3
sg1960
F0.47058823529411764
sg1961
F0.8
sg1962
F0.8
sg1963
F0.21052631578947367
sg1964
I12
sg1965
F0.52
stp2009
a(lp2010
(g1722
cnumpy.core.multiarray
scalar
p2011
(cnumpy
dtype
p2012
(S'f8'
p2013
I0
I1
tp2014
Rp2015
(I3
S'<'
p2016
NNNI-1
I-1
I0
tp2017
bS'\xd27\x9e\x04k\xd1\xe7?'
p2018
tp2019
Rp2020
tp2021
a(g14
g2011
(g2015
S'\xba\xb8\xb8\xb8\xb8\xb8\xe8?'
p2022
tp2023
Rp2024
tp2025
a(lp2026
(g1722
g2011
(g2015
S'\x05e\xd84\x8d\x85\xd5?'
p2027
tp2028
Rp2029
tp2030
a(g14
g2011
(g2015
S'\xa8Y\x1f\xf6\xe0\xd0\xd8?'
p2031
tp2032
Rp2033
tp2034
atp2035
.