((lp0
(iJobManager
Job
p1
(dp2
S'status'
p3
S'Finished.'
p4
sS'alg'
p5
(ibanjo
Banjo
p6
(dp7
S'exp_data'
p8
NsS'data_dir'
p9
S'/home/jesse/Workspace/School/MastersThesis/Program/output//BANJO-dream410-2011-12-16_22.07.13//banjo_q5//data/'
p10
sS'name'
p11
S'banjo_q5'
p12
sS'cmd'
p13
S'java -jar banjo.jar settingsFile=/home/jesse/Workspace/School/MastersThesis/Program/output//BANJO-dream410-2011-12-16_22.07.13//banjo_q5//banjo_settings.txt'
p14
sS'alg_name'
p15
S'banjo'
p16
sS'log_dir'
p17
S'/home/jesse/Workspace/School/MastersThesis/Program/output//BANJO-dream410-2011-12-16_22.07.13//banjo_q5//log/'
p18
sS'working_dir'
p19
S'/home/jesse/Workspace/School/MastersThesis/Program/output//BANJO-dream410-2011-12-16_22.07.13//banjo_q5//banjo_program/'
p20
sS'output_dir'
p21
S'/home/jesse/Workspace/School/MastersThesis/Program/output//BANJO-dream410-2011-12-16_22.07.13//banjo_q5/'
p22
sS'gene_list'
p23
(lp24
S'G1'
p25
aS'G2'
p26
aS'G3'
p27
aS'G4'
p28
aS'G5'
p29
aS'G6'
p30
aS'G7'
p31
aS'G8'
p32
aS'G9'
p33
aS'G10'
p34
asS'cwd'
p35
g20
sS'network'
p36
(iNetwork
Network
p37
(dp38
S'binary'
p39
I00
sg36
(dp40
g31
(dp41
g31
F0.0
sg30
F1.0
sg29
F0.0
sg28
F1.0
sg27
F1.0
sg26
F0.0
sg25
F1.0
sg33
F1.0
sg32
F1.0
sg34
F0.0
ssg30
(dp42
g31
F1.0
sg30
F0.0
sg29
F0.0
sg28
F0.0
sg27
F1.0
sg26
F1.0
sg25
F1.0
sg33
F0.0
sg32
F0.0
sg34
F1.0
ssg29
(dp43
g31
F0.0
sg30
F0.0
sg29
F0.0
sg28
F1.0
sg27
F0.0
sg26
F0.0
sg25
F1.0
sg33
F0.0
sg32
F1.0
sg34
F1.0
ssg28
(dp44
g31
F1.0
sg30
F0.0
sg29
F1.0
sg28
F0.0
sg27
F0.0
sg26
F0.0
sg25
F1.0
sg33
F0.0
sg32
F1.0
sg34
F1.0
ssg27
(dp45
g31
F1.0
sg30
F1.0
sg29
F0.0
sg28
F0.0
sg27
F0.0
sg26
F1.0
sg25
F0.0
sg33
F0.0
sg32
F0.0
sg34
F1.0
ssg26
(dp46
g31
F0.0
sg30
F1.0
sg29
F0.0
sg28
F0.0
sg27
F1.0
sg26
F0.0
sg25
F0.0
sg33
F1.0
sg32
F0.0
sg34
F1.0
ssg25
(dp47
g31
F1.0
sg30
F1.0
sg29
F1.0
sg28
F1.0
sg27
F0.0
sg26
F0.0
sg25
F0.0
sg33
F0.0
sg32
F1.0
sg34
F1.0
ssg33
(dp48
g31
F1.0
sg30
F0.0
sg29
F0.0
sg28
F0.0
sg27
F0.0
sg26
F1.0
sg25
F0.0
sg33
F0.0
sg32
F0.0
sg34
F0.0
ssg32
(dp49
g31
F1.0
sg30
F0.0
sg29
F1.0
sg28
F1.0
sg27
F0.0
sg26
F0.0
sg25
F1.0
sg33
F0.0
sg32
F0.0
sg34
F0.0
ssg34
(dp50
g31
F0.0
sg30
F1.0
sg29
F1.0
sg28
F1.0
sg27
F1.0
sg26
F1.0
sg25
F1.0
sg33
F0.0
sg32
F0.0
sg34
F0.0
sssS'cutoff'
p51
I0
sS'signed'
p52
I00
sS'original_network'
p53
(lp54
(lp55
I0
aI0
aI0
aI1
aI1
aI1
aI1
aI1
aI0
aI1
aa(lp56
I0
aI0
aI1
aI0
aI0
aI1
aI0
aI0
aI1
aI1
aa(lp57
I0
aI1
aI0
aI0
aI0
aI1
aI1
aI0
aI0
aI1
aa(lp58
I1
aI0
aI0
aI0
aI1
aI0
aI1
aI1
aI0
aI1
aa(lp59
I1
aI0
aI0
aI1
aI0
aI0
aI0
aI1
aI0
aI1
aa(lp60
I1
aI1
aI1
aI0
aI0
aI0
aI1
aI0
aI0
aI1
aa(lp61
I1
aI0
aI1
aI1
aI0
aI1
aI0
aI1
aI1
aI0
aa(lp62
I1
aI0
aI0
aI1
aI1
aI0
aI1
aI0
aI0
aI0
aa(lp63
I0
aI1
aI0
aI0
aI0
aI0
aI1
aI0
aI0
aI0
aa(lp64
I1
aI1
aI1
aI1
aI1
aI1
aI0
aI0
aI0
aI0
aasS'thresh'
p65
I0
sg23
g24
sbsS'input_files'
p66
(lp67
(iDataStore
MicroarrayData
p68
(dp69
S'experiments'
p70
(lp71
(iDataStore
Experiment
p72
(dp73
S'ratios'
p74
(dp75
g31
S'0.6067846'
p76
sg30
S'0.2754930'
p77
sg29
S'0.1004299'
p78
sg28
S'0.7745716'
p79
sg27
S'0.3550646'
p80
sg26
S'0.1272186'
p81
sg25
S'0.6665114'
p82
sg33
S'0.6656366'
p83
sg32
S'0.7430983'
p84
sg34
S'0.6950638'
p85
ssS'type'
p86
S'timeseries'
p87
sS'tfs'
p88
(lp89
sg11
S'0.0'
p90
sS'file'
p91
S'Timeseries-Rep3.csv'
p92
sba(iDataStore
Experiment
p93
(dp94
g74
(dp95
g31
S'0.6096963'
p96
sg30
S'0.3107637'
p97
sg29
S'0.1924591'
p98
sg28
S'0.7229108'
p99
sg27
S'0.3464115'
p100
sg26
S'0.1218223'
p101
sg25
S'0.3257748'
p102
sg33
S'0.5554138'
p103
sg32
S'0.7567515'
p104
sg34
S'0.7327167'
p105
ssg86
g87
sg88
g89
sg11
S'50.0'
p106
sg91
g92
sba(iDataStore
Experiment
p107
(dp108
g74
(dp109
g31
S'0.4647324'
p110
sg30
S'0.3569736'
p111
sg29
S'0.2333497'
p112
sg28
S'0.5868280'
p113
sg27
S'0.5712888'
p114
sg26
S'0.0443587'
p115
sg25
S'0.1775012'
p116
sg33
S'0.7211032'
p117
sg32
S'0.6656993'
p118
sg34
S'0.6717156'
p119
ssg86
g87
sg88
g89
sg11
S'100.0'
p120
sg91
g92
sba(iDataStore
Experiment
p121
(dp122
g74
(dp123
g31
S'0.4200074'
p124
sg30
S'0.3375671'
p125
sg29
S'0.4045100'
p126
sg28
S'0.6338205'
p127
sg27
S'0.4849771'
p128
sg26
S'0.0615354'
p129
sg25
S'0.1838851'
p130
sg33
S'0.6402268'
p131
sg32
S'0.7324089'
p132
sg34
S'0.6970434'
p133
ssg86
g87
sg88
g89
sg11
S'150.0'
p134
sg91
g92
sba(iDataStore
Experiment
p135
(dp136
g74
(dp137
g31
S'0.4145393'
p138
sg30
S'0.2994227'
p139
sg29
S'0.5583316'
p140
sg28
S'0.5354375'
p141
sg27
S'0.3435551'
p142
sg26
S'0.1398431'
p143
sg25
S'0.0930693'
p144
sg33
S'0.5478739'
p145
sg32
S'0.6771472'
p146
sg34
S'0.7512751'
p147
ssg86
g87
sg88
g89
sg11
S'200.0'
p148
sg91
g92
sba(iDataStore
Experiment
p149
(dp150
g74
(dp151
g31
S'0.5788573'
p152
sg30
S'0.3676576'
p153
sg29
S'0.6429076'
p154
sg28
S'0.5255509'
p155
sg27
S'0.3124305'
p156
sg26
S'0.0886361'
p157
sg25
S'0.0653015'
p158
sg33
S'0.5983088'
p159
sg32
S'0.8026375'
p160
sg34
S'0.6088625'
p161
ssg86
g87
sg88
g89
sg11
S'250.0'
p162
sg91
g92
sba(iDataStore
Experiment
p163
(dp164
g74
(dp165
g31
S'0.5993621'
p166
sg30
S'0.2992928'
p167
sg29
S'0.5350145'
p168
sg28
S'0.4599706'
p169
sg27
S'0.4126412'
p170
sg26
S'0.0948080'
p171
sg25
S'0.1502136'
p172
sg33
S'0.7288696'
p173
sg32
S'0.6181808'
p174
sg34
S'0.6660468'
p175
ssg86
g87
sg88
g89
sg11
S'300.0'
p176
sg91
g92
sba(iDataStore
Experiment
p177
(dp178
g74
(dp179
g31
S'0.6775364'
p180
sg30
S'0.3430145'
p181
sg29
S'0.5641511'
p182
sg28
S'0.4214017'
p183
sg27
S'0.3764574'
p184
sg26
S'0.0904510'
p185
sg25
S'0.0913323'
p186
sg33
S'0.7736935'
p187
sg32
S'0.5235399'
p188
sg34
S'0.7443968'
p189
ssg86
g87
sg88
g89
sg11
S'350.0'
p190
sg91
g92
sba(iDataStore
Experiment
p191
(dp192
g74
(dp193
g31
S'0.5142803'
p194
sg30
S'0.2333228'
p195
sg29
S'0.6718907'
p196
sg28
S'0.5030134'
p197
sg27
S'0.5188737'
p198
sg26
S'0.1182462'
p199
sg25
S'0.1358562'
p200
sg33
S'0.6843619'
p201
sg32
S'0.6087675'
p202
sg34
S'0.8365310'
p203
ssg86
g87
sg88
g89
sg11
S'400.0'
p204
sg91
g92
sba(iDataStore
Experiment
p205
(dp206
g74
(dp207
g31
S'0.4995680'
p208
sg30
S'0.3815948'
p209
sg29
S'0.6740419'
p210
sg28
S'0.4831358'
p211
sg27
S'0.3768678'
p212
sg26
S'0.0765614'
p213
sg25
S'0.1667014'
p214
sg33
S'0.7486546'
p215
sg32
S'0.5959077'
p216
sg34
S'0.7173045'
p217
ssg86
g87
sg88
g89
sg11
S'450.0'
p218
sg91
g92
sba(iDataStore
Experiment
p219
(dp220
g74
(dp221
g31
S'0.5091151'
p222
sg30
S'0.3344889'
p223
sg29
S'0.7354699'
p224
sg28
S'0.5403027'
p225
sg27
S'0.4322347'
p226
sg26
S'0.0755040'
p227
sg25
S'0.1170103'
p228
sg33
S'0.6725776'
p229
sg32
S'0.7152812'
p230
sg34
S'0.6325963'
p231
ssg86
g87
sg88
g89
sg11
S'500.0'
p232
sg91
g92
sba(iDataStore
Experiment
p233
(dp234
g74
(dp235
g31
S'0.4479249'
p236
sg30
S'0.3585150'
p237
sg29
S'0.4852550'
p238
sg28
S'0.6183860'
p239
sg27
S'0.3453156'
p240
sg26
S'0.0937210'
p241
sg25
S'0.4708819'
p242
sg33
S'0.7919255'
p243
sg32
S'0.7052075'
p244
sg34
S'0.5868152'
p245
ssg86
g87
sg88
g89
sg11
S'550.0'
p246
sg91
g92
sba(iDataStore
Experiment
p247
(dp248
g74
(dp249
g31
S'0.4196698'
p250
sg30
S'0.3239021'
p251
sg29
S'0.3257959'
p252
sg28
S'0.6233838'
p253
sg27
S'0.4763379'
p254
sg26
S'0.1443166'
p255
sg25
S'0.5545089'
p256
sg33
S'0.5791635'
p257
sg32
S'0.7299200'
p258
sg34
S'0.6029599'
p259
ssg86
g87
sg88
g89
sg11
S'600.0'
p260
sg91
g92
sba(iDataStore
Experiment
p261
(dp262
g74
(dp263
g31
S'0.4524902'
p264
sg30
S'0.2928635'
p265
sg29
S'0.2634359'
p266
sg28
S'0.6429242'
p267
sg27
S'0.3527660'
p268
sg26
S'0.1580246'
p269
sg25
S'0.5717737'
p270
sg33
S'0.6633159'
p271
sg32
S'0.7210641'
p272
sg34
S'0.6927663'
p273
ssg86
g87
sg88
g89
sg11
S'650.0'
p274
sg91
g92
sba(iDataStore
Experiment
p275
(dp276
g74
(dp277
g31
S'0.6356541'
p278
sg30
S'0.3049710'
p279
sg29
S'0.1906673'
p280
sg28
S'0.7448212'
p281
sg27
S'0.3817925'
p282
sg26
S'0.0906398'
p283
sg25
S'0.6437458'
p284
sg33
S'0.8094115'
p285
sg32
S'0.6836201'
p286
sg34
S'0.7286575'
p287
ssg86
g87
sg88
g89
sg11
S'700.0'
p288
sg91
g92
sba(iDataStore
Experiment
p289
(dp290
g74
(dp291
g31
S'0.5680143'
p292
sg30
S'0.2934906'
p293
sg29
S'0.1278089'
p294
sg28
S'0.6477586'
p295
sg27
S'0.4025808'
p296
sg26
S'0.0959292'
p297
sg25
S'0.6988616'
p298
sg33
S'0.6819686'
p299
sg32
S'0.7435989'
p300
sg34
S'0.8213812'
p301
ssg86
g87
sg88
g89
sg11
S'750.0'
p302
sg91
g92
sba(iDataStore
Experiment
p303
(dp304
g74
(dp305
g31
S'0.5652458'
p306
sg30
S'0.3429125'
p307
sg29
S'0.1340147'
p308
sg28
S'0.7884273'
p309
sg27
S'0.3520098'
p310
sg26
S'0.1251139'
p311
sg25
S'0.6002293'
p312
sg33
S'0.7548764'
p313
sg32
S'0.6701132'
p314
sg34
S'0.6814079'
p315
ssg86
g87
sg88
g89
sg11
S'800.0'
p316
sg91
g92
sba(iDataStore
Experiment
p317
(dp318
g74
(dp319
g31
S'0.3950302'
p320
sg30
S'0.3146772'
p321
sg29
S'0.1391781'
p322
sg28
S'0.7086632'
p323
sg27
S'0.4541817'
p324
sg26
S'0.0985328'
p325
sg25
S'0.7516840'
p326
sg33
S'0.6583495'
p327
sg32
S'0.6562918'
p328
sg34
S'0.6836276'
p329
ssg86
g87
sg88
g89
sg11
S'850.0'
p330
sg91
g92
sba(iDataStore
Experiment
p331
(dp332
g74
(dp333
g31
S'0.4627621'
p334
sg30
S'0.3309160'
p335
sg29
S'0.0960015'
p336
sg28
S'0.7009680'
p337
sg27
S'0.4254553'
p338
sg26
S'0.0823597'
p339
sg25
S'0.7058190'
p340
sg33
S'0.6866225'
p341
sg32
S'0.6610090'
p342
sg34
S'0.7453896'
p343
ssg86
g87
sg88
g89
sg11
S'900.0'
p344
sg91
g92
sba(iDataStore
Experiment
p345
(dp346
g74
(dp347
g31
S'0.5903798'
p348
sg30
S'0.3386791'
p349
sg29
S'0.1389801'
p350
sg28
S'0.6602306'
p351
sg27
S'0.3168437'
p352
sg26
S'0.1131190'
p353
sg25
S'0.6863142'
p354
sg33
S'0.7001660'
p355
sg32
S'0.6151949'
p356
sg34
S'0.6450720'
p357
ssg86
g87
sg88
g89
sg11
S'950.0'
p358
sg91
g92
sba(iDataStore
Experiment
p359
(dp360
g74
(dp361
g31
S'0.5938670'
p362
sg30
S'0.2846131'
p363
sg29
S'0.1181666'
p364
sg28
S'0.6695402'
p365
sg27
S'0.3340166'
p366
sg26
S'0.0780578'
p367
sg25
S'0.6785873'
p368
sg33
S'0.7702145'
p369
sg32
S'0.6823825'
p370
sg34
S'0.6068127'
p371
ssg86
g87
sg88
g89
sg11
S'1000.0'
p372
sg91
g92
sbasg86
g87
sS'timeseries_num'
p373
Nsg23
g24
sg66
(lp374
S'Timeseries-Rep0.csv'
p375
asba(iDataStore
MicroarrayData
p376
(dp377
g70
(lp378
(iDataStore
Experiment
p379
(dp380
g74
(dp381
g31
S'0.5905584'
p382
sg30
S'0.2494241'
p383
sg29
S'0.1445523'
p384
sg28
S'0.5990709'
p385
sg27
S'0.3080785'
p386
sg26
S'0.1735119'
p387
sg25
S'0.6927804'
p388
sg33
S'0.6891143'
p389
sg32
S'0.6367970'
p390
sg34
S'0.6944974'
p391
ssg86
g87
sg88
g89
sg11
S'0.0'
p392
sg91
g92
sba(iDataStore
Experiment
p393
(dp394
g74
(dp395
g31
S'0.2199619'
p396
sg30
S'0.3952169'
p397
sg29
S'0.2136285'
p398
sg28
S'0.6576991'
p399
sg27
S'0.2815777'
p400
sg26
S'0.0954328'
p401
sg25
S'0.6137000'
p402
sg33
S'0.6843410'
p403
sg32
S'0.5711943'
p404
sg34
S'0.6816443'
p405
ssg86
g87
sg88
g89
sg11
S'50.0'
p406
sg91
g92
sba(iDataStore
Experiment
p407
(dp408
g74
(dp409
g31
S'0.1706594'
p410
sg30
S'0.3336192'
p411
sg29
S'0.2556762'
p412
sg28
S'0.6349119'
p413
sg27
S'0.2896261'
p414
sg26
S'0.0704157'
p415
sg25
S'0.5923916'
p416
sg33
S'0.6408686'
p417
sg32
S'0.7645988'
p418
sg34
S'0.6201303'
p419
ssg86
g87
sg88
g89
sg11
S'100.0'
p420
sg91
g92
sba(iDataStore
Experiment
p421
(dp422
g74
(dp423
g31
S'0.1213159'
p424
sg30
S'0.3849495'
p425
sg29
S'0.1315485'
p426
sg28
S'0.5846269'
p427
sg27
S'0.1935983'
p428
sg26
S'0.0880437'
p429
sg25
S'0.5868361'
p430
sg33
S'0.8166294'
p431
sg32
S'0.7072442'
p432
sg34
S'0.7047542'
p433
ssg86
g87
sg88
g89
sg11
S'150.0'
p434
sg91
g92
sba(iDataStore
Experiment
p435
(dp436
g74
(dp437
g31
S'0.0786808'
p438
sg30
S'0.3736593'
p439
sg29
S'0.1687147'
p440
sg28
S'0.4509727'
p441
sg27
S'0.2186433'
p442
sg26
S'0.1149911'
p443
sg25
S'0.6293309'
p444
sg33
S'0.8038210'
p445
sg32
S'0.6970827'
p446
sg34
S'0.6925731'
p447
ssg86
g87
sg88
g89
sg11
S'200.0'
p448
sg91
g92
sba(iDataStore
Experiment
p449
(dp450
g74
(dp451
g31
S'0.1242939'
p452
sg30
S'0.3834565'
p453
sg29
S'0.1772348'
p454
sg28
S'0.4333604'
p455
sg27
S'0.2137598'
p456
sg26
S'0.0990501'
p457
sg25
S'0.5170203'
p458
sg33
S'0.7563581'
p459
sg32
S'0.7901656'
p460
sg34
S'0.7286596'
p461
ssg86
g87
sg88
g89
sg11
S'250.0'
p462
sg91
g92
sba(iDataStore
Experiment
p463
(dp464
g74
(dp465
g31
S'0.1323223'
p466
sg30
S'0.4000143'
p467
sg29
S'0.2365102'
p468
sg28
S'0.3898388'
p469
sg27
S'0.2892190'
p470
sg26
S'0.1159865'
p471
sg25
S'0.4709636'
p472
sg33
S'0.7090849'
p473
sg32
S'0.6791003'
p474
sg34
S'0.8249540'
p475
ssg86
g87
sg88
g89
sg11
S'300.0'
p476
sg91
g92
sba(iDataStore
Experiment
p477
(dp478
g74
(dp479
g31
S'0.0792747'
p480
sg30
S'0.3912156'
p481
sg29
S'0.2065817'
p482
sg28
S'0.4384157'
p483
sg27
S'0.2997476'
p484
sg26
S'0.0802760'
p485
sg25
S'0.6269998'
p486
sg33
S'0.6641130'
p487
sg32
S'0.6322451'
p488
sg34
S'0.7280306'
p489
ssg86
g87
sg88
g89
sg11
S'350.0'
p490
sg91
g92
sba(iDataStore
Experiment
p491
(dp492
g74
(dp493
g31
S'0.1492018'
p494
sg30
S'0.2349554'
p495
sg29
S'0.1484264'
p496
sg28
S'0.3779466'
p497
sg27
S'0.2573068'
p498
sg26
S'0.1042932'
p499
sg25
S'0.5284701'
p500
sg33
S'0.7596715'
p501
sg32
S'0.7928320'
p502
sg34
S'0.7133538'
p503
ssg86
g87
sg88
g89
sg11
S'400.0'
p504
sg91
g92
sba(iDataStore
Experiment
p505
(dp506
g74
(dp507
g31
S'0.1158488'
p508
sg30
S'0.4213528'
p509
sg29
S'0.1235777'
p510
sg28
S'0.3494604'
p511
sg27
S'0.2196169'
p512
sg26
S'0.1482319'
p513
sg25
S'0.5110939'
p514
sg33
S'0.7145425'
p515
sg32
S'0.6740440'
p516
sg34
S'0.7374688'
p517
ssg86
g87
sg88
g89
sg11
S'450.0'
p518
sg91
g92
sba(iDataStore
Experiment
p519
(dp520
g74
(dp521
g31
S'0.1350158'
p522
sg30
S'0.4517705'
p523
sg29
S'0.2365731'
p524
sg28
S'0.4211469'
p525
sg27
S'0.3025012'
p526
sg26
S'0.1153365'
p527
sg25
S'0.4882966'
p528
sg33
S'0.7176833'
p529
sg32
S'0.6484841'
p530
sg34
S'0.6872276'
p531
ssg86
g87
sg88
g89
sg11
S'500.0'
p532
sg91
g92
sba(iDataStore
Experiment
p533
(dp534
g74
(dp535
g31
S'0.6042338'
p536
sg30
S'0.3075680'
p537
sg29
S'0.2487479'
p538
sg28
S'0.4513658'
p539
sg27
S'0.3245931'
p540
sg26
S'0.1181288'
p541
sg25
S'0.6433641'
p542
sg33
S'0.6728155'
p543
sg32
S'0.7092563'
p544
sg34
S'0.6264014'
p545
ssg86
g87
sg88
g89
sg11
S'550.0'
p546
sg91
g92
sba(iDataStore
Experiment
p547
(dp548
g74
(dp549
g31
S'0.6519328'
p550
sg30
S'0.3823430'
p551
sg29
S'0.1447856'
p552
sg28
S'0.6388667'
p553
sg27
S'0.3060205'
p554
sg26
S'0.1228048'
p555
sg25
S'0.6171846'
p556
sg33
S'0.8328277'
p557
sg32
S'0.8569027'
p558
sg34
S'0.6102972'
p559
ssg86
g87
sg88
g89
sg11
S'600.0'
p560
sg91
g92
sba(iDataStore
Experiment
p561
(dp562
g74
(dp563
g31
S'0.6791125'
p564
sg30
S'0.3415498'
p565
sg29
S'0.1544187'
p566
sg28
S'0.6134333'
p567
sg27
S'0.3987270'
p568
sg26
S'0.0804874'
p569
sg25
S'0.8024419'
p570
sg33
S'0.6930467'
p571
sg32
S'0.7222545'
p572
sg34
S'0.6109138'
p573
ssg86
g87
sg88
g89
sg11
S'650.0'
p574
sg91
g92
sba(iDataStore
Experiment
p575
(dp576
g74
(dp577
g31
S'0.5099839'
p578
sg30
S'0.3402294'
p579
sg29
S'0.1578423'
p580
sg28
S'0.6801495'
p581
sg27
S'0.3594883'
p582
sg26
S'0.0871222'
p583
sg25
S'0.7804539'
p584
sg33
S'0.6455296'
p585
sg32
S'0.7069292'
p586
sg34
S'0.7232683'
p587
ssg86
g87
sg88
g89
sg11
S'700.0'
p588
sg91
g92
sba(iDataStore
Experiment
p589
(dp590
g74
(dp591
g31
S'0.5312501'
p592
sg30
S'0.3014502'
p593
sg29
S'0.0912002'
p594
sg28
S'0.6614428'
p595
sg27
S'0.4407318'
p596
sg26
S'0.0996338'
p597
sg25
S'0.8290307'
p598
sg33
S'0.6898205'
p599
sg32
S'0.6374457'
p600
sg34
S'0.5949425'
p601
ssg86
g87
sg88
g89
sg11
S'750.0'
p602
sg91
g92
sba(iDataStore
Experiment
p603
(dp604
g74
(dp605
g31
S'0.3978822'
p606
sg30
S'0.3563181'
p607
sg29
S'0.1013723'
p608
sg28
S'0.6225854'
p609
sg27
S'0.3369789'
p610
sg26
S'0.0988457'
p611
sg25
S'0.7490433'
p612
sg33
S'0.7440107'
p613
sg32
S'0.6009584'
p614
sg34
S'0.7923625'
p615
ssg86
g87
sg88
g89
sg11
S'800.0'
p616
sg91
g92
sba(iDataStore
Experiment
p617
(dp618
g74
(dp619
g31
S'0.3892781'
p620
sg30
S'0.3467893'
p621
sg29
S'0.1361985'
p622
sg28
S'0.7599636'
p623
sg27
S'0.4387776'
p624
sg26
S'0.0482351'
p625
sg25
S'0.5887312'
p626
sg33
S'0.6533540'
p627
sg32
S'0.6715002'
p628
sg34
S'0.7493886'
p629
ssg86
g87
sg88
g89
sg11
S'850.0'
p630
sg91
g92
sba(iDataStore
Experiment
p631
(dp632
g74
(dp633
g31
S'0.4222378'
p634
sg30
S'0.3105481'
p635
sg29
S'0.1683970'
p636
sg28
S'0.5764897'
p637
sg27
S'0.3228902'
p638
sg26
S'0.1078080'
p639
sg25
S'0.6694072'
p640
sg33
S'0.6421272'
p641
sg32
S'0.7085699'
p642
sg34
S'0.6938667'
p643
ssg86
g87
sg88
g89
sg11
S'900.0'
p644
sg91
g92
sba(iDataStore
Experiment
p645
(dp646
g74
(dp647
g31
S'0.5092373'
p648
sg30
S'0.2960746'
p649
sg29
S'0.1180917'
p650
sg28
S'0.7964334'
p651
sg27
S'0.2685038'
p652
sg26
S'0.0819181'
p653
sg25
S'0.7164183'
p654
sg33
S'0.6454818'
p655
sg32
S'0.7121105'
p656
sg34
S'0.6612289'
p657
ssg86
g87
sg88
g89
sg11
S'950.0'
p658
sg91
g92
sba(iDataStore
Experiment
p659
(dp660
g74
(dp661
g31
S'0.5376463'
p662
sg30
S'0.2432311'
p663
sg29
S'0.1803657'
p664
sg28
S'0.6352872'
p665
sg27
S'0.3146458'
p666
sg26
S'0.1198640'
p667
sg25
S'0.8032117'
p668
sg33
S'0.6253106'
p669
sg32
S'0.6763547'
p670
sg34
S'0.5716938'
p671
ssg86
g87
sg88
g89
sg11
S'1000.0'
p672
sg91
g92
sbasg86
g87
sg373
Nsg23
(lp673
g25
ag26
ag27
ag28
ag29
ag30
ag31
ag32
ag33
ag34
asg66
(lp674
S'Timeseries-Rep1.csv'
p675
asba(iDataStore
MicroarrayData
p676
(dp677
g70
(lp678
(iDataStore
Experiment
p679
(dp680
g74
(dp681
g31
S'0.5852446'
p682
sg30
S'0.2777284'
p683
sg29
S'0.1394119'
p684
sg28
S'0.6290043'
p685
sg27
S'0.4955336'
p686
sg26
S'0.0965407'
p687
sg25
S'0.7025546'
p688
sg33
S'0.7189792'
p689
sg32
S'0.6987308'
p690
sg34
S'0.6317014'
p691
ssg86
g87
sg88
g89
sg11
S'0.0'
p692
sg91
g92
sba(iDataStore
Experiment
p693
(dp694
g74
(dp695
g31
S'0.3879914'
p696
sg30
S'0.3160889'
p697
sg29
S'0.1601289'
p698
sg28
S'0.6331020'
p699
sg27
S'0.4120065'
p700
sg26
S'0.0066399'
p701
sg25
S'0.2670111'
p702
sg33
S'0.8405381'
p703
sg32
S'0.3125419'
p704
sg34
S'0.7525926'
p705
ssg86
g87
sg88
g89
sg11
S'50.0'
p706
sg91
g92
sba(iDataStore
Experiment
p707
(dp708
g74
(dp709
g31
S'0.5371867'
p710
sg30
S'0.4121452'
p711
sg29
S'0.3527526'
p712
sg28
S'0.6388113'
p713
sg27
S'0.3162661'
p714
sg26
S'0.0002031'
p715
sg25
S'0.1495577'
p716
sg33
S'0.7847303'
p717
sg32
S'0.2207124'
p718
sg34
S'0.6308077'
p719
ssg86
g87
sg88
g89
sg11
S'100.0'
p720
sg91
g92
sba(iDataStore
Experiment
p721
(dp722
g74
(dp723
g31
S'0.5854555'
p724
sg30
S'0.4561672'
p725
sg29
S'0.5828865'
p726
sg28
S'0.5332911'
p727
sg27
S'0.3444491'
p728
sg26
S'0.0000726'
p729
sg25
S'0.1258573'
p730
sg33
S'0.6864760'
p731
sg32
S'0.1641590'
p732
sg34
S'0.6603441'
p733
ssg86
g87
sg88
g89
sg11
S'150.0'
p734
sg91
g92
sba(iDataStore
Experiment
p735
(dp736
g74
(dp737
g31
S'0.4715633'
p738
sg30
S'0.5160537'
p739
sg29
S'0.6474004'
p740
sg28
S'0.4870183'
p741
sg27
S'0.3601180'
p742
sg26
S'0.0007181'
p743
sg25
S'0.1503708'
p744
sg33
S'0.7514894'
p745
sg32
S'0.1138825'
p746
sg34
S'0.7220521'
p747
ssg86
g87
sg88
g89
sg11
S'200.0'
p748
sg91
g92
sba(iDataStore
Experiment
p749
(dp750
g74
(dp751
g31
S'0.5616858'
p752
sg30
S'0.5849437'
p753
sg29
S'0.5962019'
p754
sg28
S'0.3816565'
p755
sg27
S'0.2514869'
p756
sg26
S'0.0010901'
p757
sg25
S'0.1147272'
p758
sg33
S'0.7451011'
p759
sg32
S'0.0875836'
p760
sg34
S'0.9215333'
p761
ssg86
g87
sg88
g89
sg11
S'250.0'
p762
sg91
g92
sba(iDataStore
Experiment
p763
(dp764
g74
(dp765
g31
S'0.5828932'
p766
sg30
S'0.6962295'
p767
sg29
S'0.7206053'
p768
sg28
S'0.4027960'
p769
sg27
S'0.4130228'
p770
sg26
S'0.0006993'
p771
sg25
S'0.1136885'
p772
sg33
S'0.7346484'
p773
sg32
S'0.1047608'
p774
sg34
S'0.6120013'
p775
ssg86
g87
sg88
g89
sg11
S'300.0'
p776
sg91
g92
sba(iDataStore
Experiment
p777
(dp778
g74
(dp779
g31
S'0.5699641'
p780
sg30
S'0.6188064'
p781
sg29
S'0.6110892'
p782
sg28
S'0.4555527'
p783
sg27
S'0.5144453'
p784
sg26
S'0.0006402'
p785
sg25
S'0.1074903'
p786
sg33
S'0.7260995'
p787
sg32
S'0.1494655'
p788
sg34
S'0.7034582'
p789
ssg86
g87
sg88
g89
sg11
S'350.0'
p790
sg91
g92
sba(iDataStore
Experiment
p791
(dp792
g74
(dp793
g31
S'0.5705248'
p794
sg30
S'0.6340790'
p795
sg29
S'0.7049432'
p796
sg28
S'0.4184513'
p797
sg27
S'0.3046374'
p798
sg26
S'0.0000216'
p799
sg25
S'0.0916218'
p800
sg33
S'0.7072688'
p801
sg32
S'0.1345381'
p802
sg34
S'0.7037104'
p803
ssg86
g87
sg88
g89
sg11
S'400.0'
p804
sg91
g92
sba(iDataStore
Experiment
p805
(dp806
g74
(dp807
g31
S'0.5182417'
p808
sg30
S'0.4893698'
p809
sg29
S'0.6032927'
p810
sg28
S'0.4398207'
p811
sg27
S'0.4381759'
p812
sg26
S'0.0001071'
p813
sg25
S'0.0704370'
p814
sg33
S'0.7245269'
p815
sg32
S'0.1445357'
p816
sg34
S'0.6900767'
p817
ssg86
g87
sg88
g89
sg11
S'450.0'
p818
sg91
g92
sba(iDataStore
Experiment
p819
(dp820
g74
(dp821
g31
S'0.5254869'
p822
sg30
S'0.5912179'
p823
sg29
S'0.6065379'
p824
sg28
S'0.4081400'
p825
sg27
S'0.4247121'
p826
sg26
S'0.0000243'
p827
sg25
S'0.1084545'
p828
sg33
S'0.7796607'
p829
sg32
S'0.1195000'
p830
sg34
S'0.7214128'
p831
ssg86
g87
sg88
g89
sg11
S'500.0'
p832
sg91
g92
sba(iDataStore
Experiment
p833
(dp834
g74
(dp835
g31
S'0.4837116'
p836
sg30
S'0.5662445'
p837
sg29
S'0.6220579'
p838
sg28
S'0.4666379'
p839
sg27
S'0.3493963'
p840
sg26
S'0.1669844'
p841
sg25
S'0.4934324'
p842
sg33
S'0.7879295'
p843
sg32
S'0.5461221'
p844
sg34
S'0.7344458'
p845
ssg86
g87
sg88
g89
sg11
S'550.0'
p846
sg91
g92
sba(iDataStore
Experiment
p847
(dp848
g74
(dp849
g31
S'0.5869444'
p850
sg30
S'0.4739788'
p851
sg29
S'0.3116094'
p852
sg28
S'0.5659879'
p853
sg27
S'0.2905074'
p854
sg26
S'0.1396843'
p855
sg25
S'0.6485525'
p856
sg33
S'0.6549880'
p857
sg32
S'0.6502586'
p858
sg34
S'0.6450217'
p859
ssg86
g87
sg88
g89
sg11
S'600.0'
p860
sg91
g92
sba(iDataStore
Experiment
p861
(dp862
g74
(dp863
g31
S'0.5316969'
p864
sg30
S'0.3214644'
p865
sg29
S'0.3052366'
p866
sg28
S'0.5786856'
p867
sg27
S'0.4188026'
p868
sg26
S'0.0786818'
p869
sg25
S'0.7971715'
p870
sg33
S'0.6432834'
p871
sg32
S'0.7105375'
p872
sg34
S'0.7139627'
p873
ssg86
g87
sg88
g89
sg11
S'650.0'
p874
sg91
g92
sba(iDataStore
Experiment
p875
(dp876
g74
(dp877
g31
S'0.4560579'
p878
sg30
S'0.3322274'
p879
sg29
S'0.1586621'
p880
sg28
S'0.6022758'
p881
sg27
S'0.4350727'
p882
sg26
S'0.0780344'
p883
sg25
S'0.5833888'
p884
sg33
S'0.6150558'
p885
sg32
S'0.6787980'
p886
sg34
S'0.7626299'
p887
ssg86
g87
sg88
g89
sg11
S'700.0'
p888
sg91
g92
sba(iDataStore
Experiment
p889
(dp890
g74
(dp891
g31
S'0.3600829'
p892
sg30
S'0.3789285'
p893
sg29
S'0.1446601'
p894
sg28
S'0.6865068'
p895
sg27
S'0.3151357'
p896
sg26
S'0.1123633'
p897
sg25
S'0.7644667'
p898
sg33
S'0.7599346'
p899
sg32
S'0.6422636'
p900
sg34
S'0.7957661'
p901
ssg86
g87
sg88
g89
sg11
S'750.0'
p902
sg91
g92
sba(iDataStore
Experiment
p903
(dp904
g74
(dp905
g31
S'0.5459900'
p906
sg30
S'0.3403691'
p907
sg29
S'0.1015360'
p908
sg28
S'0.6589912'
p909
sg27
S'0.3121278'
p910
sg26
S'0.1890966'
p911
sg25
S'0.7656012'
p912
sg33
S'0.8074774'
p913
sg32
S'0.8619677'
p914
sg34
S'0.7599446'
p915
ssg86
g87
sg88
g89
sg11
S'800.0'
p916
sg91
g92
sba(iDataStore
Experiment
p917
(dp918
g74
(dp919
g31
S'0.4768284'
p920
sg30
S'0.3956457'
p921
sg29
S'0.2198009'
p922
sg28
S'0.6910229'
p923
sg27
S'0.4633630'
p924
sg26
S'0.1077332'
p925
sg25
S'0.6111505'
p926
sg33
S'0.6190746'
p927
sg32
S'0.6286063'
p928
sg34
S'0.6722002'
p929
ssg86
g87
sg88
g89
sg11
S'850.0'
p930
sg91
g92
sba(iDataStore
Experiment
p931
(dp932
g74
(dp933
g31
S'0.4367724'
p934
sg30
S'0.3303212'
p935
sg29
S'0.1483400'
p936
sg28
S'0.6404274'
p937
sg27
S'0.3130161'
p938
sg26
S'0.1118654'
p939
sg25
S'0.6721184'
p940
sg33
S'0.7121735'
p941
sg32
S'0.7552463'
p942
sg34
S'0.6523538'
p943
ssg86
g87
sg88
g89
sg11
S'900.0'
p944
sg91
g92
sba(iDataStore
Experiment
p945
(dp946
g74
(dp947
g31
S'0.4847003'
p948
sg30
S'0.3811676'
p949
sg29
S'0.1128817'
p950
sg28
S'0.6113299'
p951
sg27
S'0.3330950'
p952
sg26
S'0.1164068'
p953
sg25
S'0.6289104'
p954
sg33
S'0.7135124'
p955
sg32
S'0.7976182'
p956
sg34
S'0.7852974'
p957
ssg86
g87
sg88
g89
sg11
S'950.0'
p958
sg91
g92
sba(iDataStore
Experiment
p959
(dp960
g74
(dp961
g31
S'0.5258812'
p962
sg30
S'0.3700837'
p963
sg29
S'0.1406588'
p964
sg28
S'0.6687344'
p965
sg27
S'0.3590816'
p966
sg26
S'0.0879682'
p967
sg25
S'0.7712319'
p968
sg33
S'0.7878045'
p969
sg32
S'0.7604233'
p970
sg34
S'0.6290981'
p971
ssg86
g87
sg88
g89
sg11
S'1000.0'
p972
sg91
g92
sbasg86
g87
sg373
Nsg23
(lp973
g25
ag26
ag27
ag28
ag29
ag30
ag31
ag32
ag33
ag34
asg66
(lp974
S'Timeseries-Rep2.csv'
p975
asba(iDataStore
MicroarrayData
p976
(dp977
g70
(lp978
(iDataStore
Experiment
p979
(dp980
g74
(dp981
g31
S'0.3970339'
p982
sg30
S'0.2432843'
p983
sg29
S'0.1237001'
p984
sg28
S'0.7087402'
p985
sg27
S'0.5393216'
p986
sg26
S'0.1646974'
p987
sg25
S'0.7291507'
p988
sg33
S'0.6285854'
p989
sg32
S'0.7599215'
p990
sg34
S'0.6076601'
p991
ssg86
g87
sg88
g89
sg11
S'0.0'
p992
sg91
g92
sba(iDataStore
Experiment
p993
(dp994
g74
(dp995
g31
S'0.1468781'
p996
sg30
S'0.4088945'
p997
sg29
S'0.1012508'
p998
sg28
S'0.6874071'
p999
sg27
S'0.3894485'
p1000
sg26
S'0.1803674'
p1001
sg25
S'0.5109302'
p1002
sg33
S'0.4169359'
p1003
sg32
S'0.3528068'
p1004
sg34
S'0.7657149'
p1005
ssg86
g87
sg88
g89
sg11
S'50.0'
p1006
sg91
g92
sba(iDataStore
Experiment
p1007
(dp1008
g74
(dp1009
g31
S'0.0264118'
p1010
sg30
S'0.4252275'
p1011
sg29
S'0.1486603'
p1012
sg28
S'0.5980135'
p1013
sg27
S'0.2565762'
p1014
sg26
S'0.1875477'
p1015
sg25
S'0.6097374'
p1016
sg33
S'0.4086711'
p1017
sg32
S'0.3565534'
p1018
sg34
S'0.8156564'
p1019
ssg86
g87
sg88
g89
sg11
S'100.0'
p1020
sg91
g92
sba(iDataStore
Experiment
p1021
(dp1022
g74
(dp1023
g31
S'0.0259651'
p1024
sg30
S'0.4733397'
p1025
sg29
S'0.1471183'
p1026
sg28
S'0.4758323'
p1027
sg27
S'0.1696391'
p1028
sg26
S'0.2070564'
p1029
sg25
S'0.7059362'
p1030
sg33
S'0.3558222'
p1031
sg32
S'0.2819844'
p1032
sg34
S'0.7042378'
p1033
ssg86
g87
sg88
g89
sg11
S'150.0'
p1034
sg91
g92
sba(iDataStore
Experiment
p1035
(dp1036
g74
(dp1037
g31
S'0.0067659'
p1038
sg30
S'0.5552323'
p1039
sg29
S'0.1409376'
p1040
sg28
S'0.3854643'
p1041
sg27
S'0.2447503'
p1042
sg26
S'0.2695352'
p1043
sg25
S'0.7791460'
p1044
sg33
S'0.4058957'
p1045
sg32
S'0.1862479'
p1046
sg34
S'0.6916045'
p1047
ssg86
g87
sg88
g89
sg11
S'200.0'
p1048
sg91
g92
sba(iDataStore
Experiment
p1049
(dp1050
g74
(dp1051
g31
S'0.0094517'
p1052
sg30
S'0.4274730'
p1053
sg29
S'0.0985869'
p1054
sg28
S'0.4492310'
p1055
sg27
S'0.1712229'
p1056
sg26
S'0.3182197'
p1057
sg25
S'0.7512179'
p1058
sg33
S'0.3565842'
p1059
sg32
S'0.2538905'
p1060
sg34
S'0.7226358'
p1061
ssg86
g87
sg88
g89
sg11
S'250.0'
p1062
sg91
g92
sba(iDataStore
Experiment
p1063
(dp1064
g74
(dp1065
g31
S'0.0019713'
p1066
sg30
S'0.5281481'
p1067
sg29
S'0.1500982'
p1068
sg28
S'0.3920308'
p1069
sg27
S'0.2081826'
p1070
sg26
S'0.2300156'
p1071
sg25
S'0.6662777'
p1072
sg33
S'0.2789396'
p1073
sg32
S'0.2450673'
p1074
sg34
S'0.8015413'
p1075
ssg86
g87
sg88
g89
sg11
S'300.0'
p1076
sg91
g92
sba(iDataStore
Experiment
p1077
(dp1078
g74
(dp1079
g31
S'0.0114260'
p1080
sg30
S'0.5760348'
p1081
sg29
S'0.1285197'
p1082
sg28
S'0.3937747'
p1083
sg27
S'0.2921507'
p1084
sg26
S'0.2564993'
p1085
sg25
S'0.6446435'
p1086
sg33
S'0.2805749'
p1087
sg32
S'0.1746718'
p1088
sg34
S'0.7041561'
p1089
ssg86
g87
sg88
g89
sg11
S'350.0'
p1090
sg91
g92
sba(iDataStore
Experiment
p1091
(dp1092
g74
(dp1093
g31
S'0.0138563'
p1094
sg30
S'0.5195734'
p1095
sg29
S'0.1167303'
p1096
sg28
S'0.5795062'
p1097
sg27
S'0.1989521'
p1098
sg26
S'0.2767497'
p1099
sg25
S'0.7309197'
p1100
sg33
S'0.3775839'
p1101
sg32
S'0.2548303'
p1102
sg34
S'0.7438145'
p1103
ssg86
g87
sg88
g89
sg11
S'400.0'
p1104
sg91
g92
sba(iDataStore
Experiment
p1105
(dp1106
g74
(dp1107
g31
S'0.0025197'
p1108
sg30
S'0.4616732'
p1109
sg29
S'0.1496491'
p1110
sg28
S'0.3893692'
p1111
sg27
S'0.2291561'
p1112
sg26
S'0.2384708'
p1113
sg25
S'0.7241511'
p1114
sg33
S'0.3453198'
p1115
sg32
S'0.1916132'
p1116
sg34
S'0.7157578'
p1117
ssg86
g87
sg88
g89
sg11
S'450.0'
p1118
sg91
g92
sba(iDataStore
Experiment
p1119
(dp1120
g74
(dp1121
g31
S'0.0070070'
p1122
sg30
S'0.4998435'
p1123
sg29
S'0.1109189'
p1124
sg28
S'0.2895560'
p1125
sg27
S'0.2398097'
p1126
sg26
S'0.2557487'
p1127
sg25
S'0.6861697'
p1128
sg33
S'0.3096857'
p1129
sg32
S'0.1959993'
p1130
sg34
S'0.6144597'
p1131
ssg86
g87
sg88
g89
sg11
S'500.0'
p1132
sg91
g92
sba(iDataStore
Experiment
p1133
(dp1134
g74
(dp1135
g31
S'0.5668736'
p1136
sg30
S'0.4044676'
p1137
sg29
S'0.1082641'
p1138
sg28
S'0.4475400'
p1139
sg27
S'0.2068039'
p1140
sg26
S'0.1897509'
p1141
sg25
S'0.6640881'
p1142
sg33
S'0.6214781'
p1143
sg32
S'0.6426656'
p1144
sg34
S'0.5714713'
p1145
ssg86
g87
sg88
g89
sg11
S'550.0'
p1146
sg91
g92
sba(iDataStore
Experiment
p1147
(dp1148
g74
(dp1149
g31
S'0.5977940'
p1150
sg30
S'0.4860355'
p1151
sg29
S'0.1010354'
p1152
sg28
S'0.5663255'
p1153
sg27
S'0.3196045'
p1154
sg26
S'0.1523764'
p1155
sg25
S'0.6374970'
p1156
sg33
S'0.6409856'
p1157
sg32
S'0.7231546'
p1158
sg34
S'0.6966782'
p1159
ssg86
g87
sg88
g89
sg11
S'600.0'
p1160
sg91
g92
sba(iDataStore
Experiment
p1161
(dp1162
g74
(dp1163
g31
S'0.6950467'
p1164
sg30
S'0.4614339'
p1165
sg29
S'0.1013164'
p1166
sg28
S'0.6595041'
p1167
sg27
S'0.4068650'
p1168
sg26
S'0.1338911'
p1169
sg25
S'0.7156959'
p1170
sg33
S'0.6558541'
p1171
sg32
S'0.7188045'
p1172
sg34
S'0.7758014'
p1173
ssg86
g87
sg88
g89
sg11
S'650.0'
p1174
sg91
g92
sba(iDataStore
Experiment
p1175
(dp1176
g74
(dp1177
g31
S'0.5087046'
p1178
sg30
S'0.3561251'
p1179
sg29
S'0.1462886'
p1180
sg28
S'0.6690486'
p1181
sg27
S'0.4325222'
p1182
sg26
S'0.1458993'
p1183
sg25
S'0.6367377'
p1184
sg33
S'0.7491581'
p1185
sg32
S'0.6382091'
p1186
sg34
S'0.7329435'
p1187
ssg86
g87
sg88
g89
sg11
S'700.0'
p1188
sg91
g92
sba(iDataStore
Experiment
p1189
(dp1190
g74
(dp1191
g31
S'0.4667717'
p1192
sg30
S'0.3473546'
p1193
sg29
S'0.1460243'
p1194
sg28
S'0.5726726'
p1195
sg27
S'0.4342745'
p1196
sg26
S'0.1471605'
p1197
sg25
S'0.6861329'
p1198
sg33
S'0.7790399'
p1199
sg32
S'0.6700589'
p1200
sg34
S'0.7393787'
p1201
ssg86
g87
sg88
g89
sg11
S'750.0'
p1202
sg91
g92
sba(iDataStore
Experiment
p1203
(dp1204
g74
(dp1205
g31
S'0.5446558'
p1206
sg30
S'0.2765572'
p1207
sg29
S'0.1294852'
p1208
sg28
S'0.7432860'
p1209
sg27
S'0.4384850'
p1210
sg26
S'0.1238498'
p1211
sg25
S'0.7440202'
p1212
sg33
S'0.6396986'
p1213
sg32
S'0.7585209'
p1214
sg34
S'0.6684210'
p1215
ssg86
g87
sg88
g89
sg11
S'800.0'
p1216
sg91
g92
sba(iDataStore
Experiment
p1217
(dp1218
g74
(dp1219
g31
S'0.4650374'
p1220
sg30
S'0.3447260'
p1221
sg29
S'0.0999712'
p1222
sg28
S'0.5678651'
p1223
sg27
S'0.4268514'
p1224
sg26
S'0.0662469'
p1225
sg25
S'0.8967149'
p1226
sg33
S'0.6389196'
p1227
sg32
S'0.7023964'
p1228
sg34
S'0.6975826'
p1229
ssg86
g87
sg88
g89
sg11
S'850.0'
p1230
sg91
g92
sba(iDataStore
Experiment
p1231
(dp1232
g74
(dp1233
g31
S'0.4798852'
p1234
sg30
S'0.3897331'
p1235
sg29
S'0.1245277'
p1236
sg28
S'0.6886540'
p1237
sg27
S'0.4127351'
p1238
sg26
S'0.0664624'
p1239
sg25
S'0.7564360'
p1240
sg33
S'0.7970938'
p1241
sg32
S'0.6957703'
p1242
sg34
S'0.6599207'
p1243
ssg86
g87
sg88
g89
sg11
S'900.0'
p1244
sg91
g92
sba(iDataStore
Experiment
p1245
(dp1246
g74
(dp1247
g31
S'0.4785983'
p1248
sg30
S'0.2650917'
p1249
sg29
S'0.0947804'
p1250
sg28
S'0.5188151'
p1251
sg27
S'0.3728141'
p1252
sg26
S'0.0715481'
p1253
sg25
S'0.6792970'
p1254
sg33
S'0.5806831'
p1255
sg32
S'0.7806962'
p1256
sg34
S'0.7913360'
p1257
ssg86
g87
sg88
g89
sg11
S'950.0'
p1258
sg91
g92
sba(iDataStore
Experiment
p1259
(dp1260
g74
(dp1261
g31
S'0.3951515'
p1262
sg30
S'0.3540091'
p1263
sg29
S'0.1239435'
p1264
sg28
S'0.8028182'
p1265
sg27
S'0.3585051'
p1266
sg26
S'0.0930319'
p1267
sg25
S'0.6020569'
p1268
sg33
S'0.7304382'
p1269
sg32
S'0.7849719'
p1270
sg34
S'0.6863379'
p1271
ssg86
g87
sg88
g89
sg11
S'1000.0'
p1272
sg91
g92
sbasg86
g87
sg373
Nsg23
(lp1273
g25
ag26
ag27
ag28
ag29
ag30
ag31
ag32
ag33
ag34
asg66
(lp1274
g92
asbasbsS'id'
p1275
I3
sS'settings'
p1276
(dp1277
S'inferelator'
p1278
(dp1279
S'datafiles'
p1280
S'data/waffles.txt data/testing.txt'
p1281
ssS'genie3'
p1282
(dp1283
S'config'
p1284
S'config/genie3_testing.cfg'
p1285
ssS'cmonkey'
p1286
(dp1287
S'config'
p1288
S'config/cmonkey_testing.cfg'
p1289
ssS'tlclr'
p1290
(dp1291
S'config'
p1292
S'config/tlclr_testing.cfg'
p1293
ssS'global'
p1294
(dp1295
S'matlab_path'
p1296
S'matlab'
p1297
sS'medium2_network_goldnet_file'
p1298
S'datasets/20Gene_Network2/Ecoli-20Genes-6Reg-3_goldstandard.tsv'
p1299
sS'dream4100_network_knockdown_file'
p1300
S'datasets/DREAM4_InSilico_Size100/insilico_size100_1/insilico_size100_1_knockdowns.tsv'
p1301
sS'medium2_network_delta_t'
p1302
I50
sS'large_network_knockdown_file'
p1303
S'datasets/Large_Network/Ecoli-1_knockdowns.tsv'
p1304
sS'dream410_network_delta_t'
p1305
I50
sS'n_processors'
p1306
I5
sS'large_network_timeseries_file'
p1307
S'datasets/Large_Network/Ecoli-1_dream4_timeseries.tsv'
p1308
sS'dream410_network_wildtype_file'
p1309
S'datasets/DREAM4_InSilico_Size10/insilico_size10_1/insilico_size10_1_wildtype.tsv'
p1310
sS'medium2_network_timeseries_file'
p1311
S'datasets/20Gene_Network2/Ecoli-20Genes-6Reg-3_dream4_timeseries.tsv'
p1312
sS'time_series_delta_t'
p1313
I50
sS'small_network_wildtype_file'
p1314
S'datasets/Small_Network/Ecoli-1_wildtype.tsv'
p1315
sS'medium_network_goldnet_file'
p1316
S'datasets/20Gene_Network/Ecoli-20Genes-6Reg-2_goldstandard.tsv'
p1317
sS'medium_network_timeseries_file'
p1318
S'datasets/20Gene_Network/Ecoli-20Genes-6Reg-2_dream4_timeseries.tsv'
p1319
sS'dream410_network_goldnet_file'
p1320
S'datasets/DREAM4_InSilico_Size10/insilico_size10_1/DREAM4_GoldStandard_InSilico_Size10_1.tsv'
p1321
sS'medium_network_wildtype_file'
p1322
S'datasets/20Gene_Network/Ecoli-20Genes-6Reg-2_wildtype.tsv'
p1323
sS'medium2_network_multifactorial_file'
p1324
S'datasets/20Gene_Network2/Ecoli-20Genes-6Reg-3_multifactorial.tsv'
p1325
sS'dream4100_network_goldnet_file'
p1326
S'datasets/DREAM4_InSilico_Size100/insilico_size100_1/DREAM4_GoldStandard_InSilico_Size100_1.tsv'
p1327
sS'dream4100_network_knockout_file'
p1328
S'datasets/DREAM4_InSilico_Size100/insilico_size100_1/insilico_size100_1_knockouts.tsv'
p1329
sS'large_network_goldnet_file'
p1330
S'datasets/Large_Network/Ecoli-1_goldstandard.tsv'
p1331
sS'large_network_knockout_file'
p1332
S'datasets/Large_Network/Ecoli-1_knockouts.tsv'
p1333
sg19
S'/home/jesse/Workspace/School/MastersThesis/Program/'
p1334
sS'small_network_multifactorial_file'
p1335
S'datasets/Small_Network/Ecoli-1_multifactorial.tsv'
p1336
sS'output_dir'
p1337
S'output//BANJO-dream410-2011-12-16_22.07.13/'
p1338
sS'medium2_network_knockdown_file'
p1339
S'datasets/20Gene_Network2/Ecoli-20Genes-6Reg-3_knockdowns.tsv'
p1340
sS'medium_network_multifactorial_file'
p1341
S'datasets/20Gene_Network/Ecoli-20Genes-6Reg-2_multifactorial.tsv'
p1342
sS'log_dir'
p1343
S'output/logs/'
p1344
sS'dream4100_network_delta_t'
p1345
I50
sS'steady_state_files'
p1346
S'550ath.ratios.fix'
p1347
sS'small_network_goldnet_file'
p1348
S'datasets/Small_Network/Ecoli-1_goldstandard.tsv'
p1349
sS'tflist'
p1350
S'ArabGeneTFNames.csv'
p1351
sS'dream4100_network_wildtype_file'
p1352
S'datasets/DREAM4_InSilico_Size100/insilico_size100_1/insilico_size100_1_wildtype.tsv'
p1353
sS'use_cluster'
p1354
S'False'
p1355
sS'medium_network_delta_t'
p1356
I50
sS'time_series_files'
p1357
S'datasets/dream4_10/dream4_ts.tsv'
p1358
sS'small_network_delta_t'
p1359
I30
sS'small_network_timeseries_file'
p1360
S'datasets/Small_Network/Ecoli-1_dream4_timeseries.tsv'
p1361
sS'large_network_delta_t'
p1362
I30
sS'medium2_network_wildtype_file'
p1363
S'datasets/20Gene_Network2/Ecoli-20Genes-6Reg-3_wildtype.tsv'
p1364
sS'dream410_network_knockdown_file'
p1365
S'datasets/DREAM4_InSilico_Size10/insilico_size10_1/insilico_size10_1_knockdowns.tsv'
p1366
sS'dream4100_network_timeseries_file'
p1367
S'datasets/DREAM4_InSilico_Size100/insilico_size100_1/insilico_size100_1_timeseries.tsv'
p1368
sS'dream410_network_timeseries_file'
p1369
S'datasets/DREAM4_InSilico_Size10/insilico_size10_1/insilico_size10_1_timeseries.tsv'
p1370
sS'template_dir'
p1371
S'config/templates/'
p1372
sS'medium_network_knockout_file'
p1373
S'datasets/20Gene_Network/Ecoli-20Genes-6Reg-2_knockouts.tsv'
p1374
sS'large_network_multifactorial_file'
p1375
S'datasets/Large_Network/Ecoli-1_multifactorial.tsv'
p1376
sS'dream4100_network_multifactorial_file'
p1377
S'datasets/DREAM4_InSilico_Size100/insilico_size100_1/insilico_size100_1_multifactorial.tsv'
p1378
sS'large_network_wildtype_file'
p1379
S'datasets/Large_Network/Ecoli-1_wildtype.tsv'
p1380
sS'experiment_name'
p1381
S'BANJO-dream410'
p1382
sS'small_network_knockdown_file'
p1383
S'datasets/Small_Network/Ecoli-1_knockdowns.tsv'
p1384
sS'dream410_network_knockout_file'
p1385
S'datasets/DREAM4_InSilico_Size10/insilico_size10_1/insilico_size10_1_knockouts.tsv'
p1386
sS'dream410_network_multifactorial_file'
p1387
S'datasets/DREAM4_InSilico_Size10/insilico_size10_1/insilico_size10_1_multifactorial.tsv'
p1388
sS'small_network_knockout_file'
p1389
S'datasets/Small_Network/Ecoli-1_knockouts.tsv'
p1390
sS'medium2_network_knockout_file'
p1391
S'datasets/20Gene_Network2/Ecoli-20Genes-6Reg-3_knockouts.tsv'
p1392
sS'medium_network_knockdown_file'
p1393
S'datasets/20Gene_Network/Ecoli-20Genes-6Reg-2_knockdowns.tsv'
p1394
ssS'mcz'
p1395
(dp1396
S'config'
p1397
S'config/mcz_testing.cfg'
p1398
ssS'nir'
p1399
(dp1400
S'config'
p1401
S'config/nir_testing.cfg'
p1402
ssS'banjo'
p1403
(dp1404
S'best_network_selection'
p1405
S'nonidenticalThenPruned'
p1406
sS'ratio_files'
p1407
S'/home/jesse/Workspace/School/MastersThesis/Program/output//BANJO-dream410-2011-12-16_22.07.13//banjo_q9//data//Timeseries-Rep0.csv '
p1408
sS'data_name'
p1409
S'Inference Data'
p1410
sS'max_parent_count'
p1411
I5
sS'file_ext'
p1412
S'txt'
p1413
sS'working_dir_config'
p1414
S'/home/jesse/Workspace/School/MastersThesis/Program/output//BANJO-dream410-2011-12-16_22.07.13//banjo_q9//banjo_program/banjo_config.txt'
p1415
sS'output_file_name'
p1416
S'banjo_report.txt'
p1417
sS'data_dir'
p1418
S'/home/jesse/Workspace/School/MastersThesis/Program/output//BANJO-dream410-2011-12-16_22.07.13//banjo_q9//data/'
p1419
sS'exp_name'
p1420
S'BANJO Run'
p1421
sS'num_genes'
p1422
I10
sS'n_best_networks'
p1423
I20
sg21
S'/home/jesse/Workspace/School/MastersThesis/Program/output//BANJO-dream410-2011-12-16_22.07.13//banjo_q9/'
p1424
sS'ratio_file'
p1425
g375
sg17
S'/home/jesse/Workspace/School/MastersThesis/Program/output//BANJO-dream410-2011-12-16_22.07.13//banjo_q9//log/'
p1426
sS'negative_edges_file'
p1427
S''
p1428
sS'searcher_choice'
p1429
S'greedy'
p1430
sS'delta_t'
p1431
I50
sS'known_edges_file'
p1432
g1428
sS'equivalent_sample_size'
p1433
F1.0
sS'ident_lag'
p1434
I1
sS'path'
p1435
S'algorithms/banjo/'
p1436
sS'min_lag'
p1437
I1
sS'discretization_policy'
p1438
S'q4'
p1439
sS'settings_file'
p1440
S'/home/jesse/Workspace/School/MastersThesis/Program/output//BANJO-dream410-2011-12-16_22.07.13//banjo_q9//banjo_settings.txt'
p1441
sS'max_lag'
p1442
I2
sg11
S'banjo_q9'
p1443
sS'config'
p1444
S'config/banjo_testing.cfg'
p1445
sS'prior_file'
p1446
g1428
sS'output_path'
p1447
S'../output/banjo/'
p1448
sS'max_time'
p1449
I15
ssS'dfg4grn'
p1450
(dp1451
S'cluster_expname'
p1452
S'testing'
p1453
sS'tau'
p1454
I10
sS'lambda_w'
p1455
I2
sS'cluster_nodes'
p1456
I1
sS'cluster_email'
p1457
S'jml654@nyu.edu'
p1458
sS'tau_range'
p1459
(lp1460
I1
aI3
asS'eta_z_range'
p1461
(lp1462
F0.0001
aF0.1
asS'eta_z'
p1463
I3
sS'lambda_w_range'
p1464
(lp1465
F0.001
aF0.2
asS'cluster_priority'
p1466
I1
sS'path'
p1467
S'algorithms/dfg4grn/'
p1468
sS'cluster_procs'
p1469
I1
sS'config'
p1470
S'config/dfg4grn_testing.cfg'
p1471
sS'cluster_username'
p1472
S'jml654'
p1473
ssS'nirest'
p1474
(dp1475
S'ratio_files'
p1476
S'datasets/dream4_10/dream4_ts.tsv'
p1477
sS'config'
p1478
S'config/nirest_testing.cfg'
p1479
sssba(iJobManager
Job
p1480
(dp1481
g3
g4
sg5
(ibanjo
Banjo
p1482
(dp1483
g8
Nsg9
S'/home/jesse/Workspace/School/MastersThesis/Program/output//BANJO-dream410-2011-12-16_22.07.13//banjo_q4//data/'
p1484
sg11
S'banjo_q4'
p1485
sg13
S'java -jar banjo.jar settingsFile=/home/jesse/Workspace/School/MastersThesis/Program/output//BANJO-dream410-2011-12-16_22.07.13//banjo_q4//banjo_settings.txt'
p1486
sg15
g16
sg17
S'/home/jesse/Workspace/School/MastersThesis/Program/output//BANJO-dream410-2011-12-16_22.07.13//banjo_q4//log/'
p1487
sg19
S'/home/jesse/Workspace/School/MastersThesis/Program/output//BANJO-dream410-2011-12-16_22.07.13//banjo_q4//banjo_program/'
p1488
sg21
S'/home/jesse/Workspace/School/MastersThesis/Program/output//BANJO-dream410-2011-12-16_22.07.13//banjo_q4/'
p1489
sg23
g24
sg35
g1488
sg36
(iNetwork
Network
p1490
(dp1491
g39
I00
sg36
(dp1492
g31
(dp1493
g31
F0.0
sg30
F1.0
sg29
F0.0
sg28
F1.0
sg27
F1.0
sg26
F0.0
sg25
F1.0
sg33
F0.0
sg32
F1.0
sg34
F0.0
ssg30
(dp1494
g31
F1.0
sg30
F0.0
sg29
F0.0
sg28
F0.0
sg27
F1.0
sg26
F0.0
sg25
F1.0
sg33
F0.0
sg32
F0.0
sg34
F0.0
ssg29
(dp1495
g31
F0.0
sg30
F0.0
sg29
F0.0
sg28
F1.0
sg27
F0.0
sg26
F0.0
sg25
F1.0
sg33
F0.0
sg32
F1.0
sg34
F1.0
ssg28
(dp1496
g31
F1.0
sg30
F0.0
sg29
F1.0
sg28
F0.0
sg27
F0.0
sg26
F0.0
sg25
F1.0
sg33
F0.0
sg32
F1.0
sg34
F1.0
ssg27
(dp1497
g31
F1.0
sg30
F1.0
sg29
F0.0
sg28
F0.0
sg27
F0.0
sg26
F1.0
sg25
F0.0
sg33
F0.0
sg32
F0.0
sg34
F0.0
ssg26
(dp1498
g31
F0.0
sg30
F0.0
sg29
F0.0
sg28
F0.0
sg27
F1.0
sg26
F0.0
sg25
F0.0
sg33
F1.0
sg32
F0.0
sg34
F1.0
ssg25
(dp1499
g31
F1.0
sg30
F1.0
sg29
F1.0
sg28
F1.0
sg27
F0.0
sg26
F0.0
sg25
F0.0
sg33
F0.0
sg32
F1.0
sg34
F1.0
ssg33
(dp1500
g31
F0.0
sg30
F0.0
sg29
F0.0
sg28
F0.0
sg27
F0.0
sg26
F1.0
sg25
F0.0
sg33
F0.0
sg32
F0.0
sg34
F1.0
ssg32
(dp1501
g31
F1.0
sg30
F0.0
sg29
F1.0
sg28
F1.0
sg27
F0.0
sg26
F0.0
sg25
F1.0
sg33
F0.0
sg32
F0.0
sg34
F0.0
ssg34
(dp1502
g31
F0.0
sg30
F0.0
sg29
F1.0
sg28
F1.0
sg27
F0.0
sg26
F1.0
sg25
F1.0
sg33
F1.0
sg32
F0.0
sg34
F0.0
sssg51
I0
sg52
I00
sg53
(lp1503
(lp1504
I0
aI0
aI0
aI1
aI1
aI1
aI1
aI1
aI0
aI1
aa(lp1505
I0
aI0
aI1
aI0
aI0
aI0
aI0
aI0
aI1
aI1
aa(lp1506
I0
aI1
aI0
aI0
aI0
aI1
aI1
aI0
aI0
aI0
aa(lp1507
I1
aI0
aI0
aI0
aI1
aI0
aI1
aI1
aI0
aI1
aa(lp1508
I1
aI0
aI0
aI1
aI0
aI0
aI0
aI1
aI0
aI1
aa(lp1509
I1
aI0
aI1
aI0
aI0
aI0
aI1
aI0
aI0
aI0
aa(lp1510
I1
aI0
aI1
aI1
aI0
aI1
aI0
aI1
aI0
aI0
aa(lp1511
I1
aI0
aI0
aI1
aI1
aI0
aI1
aI0
aI0
aI0
aa(lp1512
I0
aI1
aI0
aI0
aI0
aI0
aI0
aI0
aI0
aI1
aa(lp1513
I1
aI1
aI0
aI1
aI1
aI0
aI0
aI0
aI1
aI0
aasg65
I0
sg23
g24
sbsg66
g67
sbsg1275
I0
sg1276
g1277
sba(iJobManager
Job
p1514
(dp1515
g3
g4
sg5
(ibanjo
Banjo
p1516
(dp1517
g8
Nsg9
S'/home/jesse/Workspace/School/MastersThesis/Program/output//BANJO-dream410-2011-12-16_22.07.13//banjo_q3//data/'
p1518
sg11
S'banjo_q3'
p1519
sg13
S'java -jar banjo.jar settingsFile=/home/jesse/Workspace/School/MastersThesis/Program/output//BANJO-dream410-2011-12-16_22.07.13//banjo_q3//banjo_settings.txt'
p1520
sg15
g16
sg17
S'/home/jesse/Workspace/School/MastersThesis/Program/output//BANJO-dream410-2011-12-16_22.07.13//banjo_q3//log/'
p1521
sg19
S'/home/jesse/Workspace/School/MastersThesis/Program/output//BANJO-dream410-2011-12-16_22.07.13//banjo_q3//banjo_program/'
p1522
sg21
S'/home/jesse/Workspace/School/MastersThesis/Program/output//BANJO-dream410-2011-12-16_22.07.13//banjo_q3/'
p1523
sg23
g24
sg35
g1522
sg36
(iNetwork
Network
p1524
(dp1525
g39
I00
sg36
(dp1526
g31
(dp1527
g31
F0.0
sg30
F1.0
sg29
F0.0
sg28
F1.0
sg27
F1.0
sg26
F0.0
sg25
F1.0
sg33
F0.0
sg32
F1.0
sg34
F0.0
ssg30
(dp1528
g31
F1.0
sg30
F0.0
sg29
F0.0
sg28
F0.0
sg27
F1.0
sg26
F0.0
sg25
F1.0
sg33
F1.0
sg32
F0.0
sg34
F0.0
ssg29
(dp1529
g31
F0.0
sg30
F0.0
sg29
F0.0
sg28
F1.0
sg27
F0.0
sg26
F0.0
sg25
F1.0
sg33
F0.0
sg32
F1.0
sg34
F1.0
ssg28
(dp1530
g31
F1.0
sg30
F0.0
sg29
F1.0
sg28
F0.0
sg27
F0.0
sg26
F0.0
sg25
F0.0
sg33
F1.0
sg32
F1.0
sg34
F1.0
ssg27
(dp1531
g31
F1.0
sg30
F1.0
sg29
F0.0
sg28
F0.0
sg27
F0.0
sg26
F1.0
sg25
F0.0
sg33
F0.0
sg32
F0.0
sg34
F0.0
ssg26
(dp1532
g31
F0.0
sg30
F0.0
sg29
F0.0
sg28
F0.0
sg27
F1.0
sg26
F0.0
sg25
F0.0
sg33
F0.0
sg32
F0.0
sg34
F1.0
ssg25
(dp1533
g31
F1.0
sg30
F1.0
sg29
F1.0
sg28
F0.0
sg27
F0.0
sg26
F0.0
sg25
F0.0
sg33
F0.0
sg32
F1.0
sg34
F1.0
ssg33
(dp1534
g31
F0.0
sg30
F1.0
sg29
F0.0
sg28
F1.0
sg27
F0.0
sg26
F0.0
sg25
F0.0
sg33
F0.0
sg32
F0.0
sg34
F1.0
ssg32
(dp1535
g31
F1.0
sg30
F0.0
sg29
F1.0
sg28
F1.0
sg27
F0.0
sg26
F0.0
sg25
F1.0
sg33
F0.0
sg32
F0.0
sg34
F0.0
ssg34
(dp1536
g31
F0.0
sg30
F0.0
sg29
F1.0
sg28
F1.0
sg27
F0.0
sg26
F1.0
sg25
F1.0
sg33
F1.0
sg32
F0.0
sg34
F0.0
sssg51
I0
sg52
I00
sg53
(lp1537
(lp1538
I0
aI0
aI0
aI0
aI1
aI1
aI1
aI1
aI0
aI1
aa(lp1539
I0
aI0
aI1
aI0
aI0
aI0
aI0
aI0
aI0
aI1
aa(lp1540
I0
aI1
aI0
aI0
aI0
aI1
aI1
aI0
aI0
aI0
aa(lp1541
I0
aI0
aI0
aI0
aI1
aI0
aI1
aI1
aI1
aI1
aa(lp1542
I1
aI0
aI0
aI1
aI0
aI0
aI0
aI1
aI0
aI1
aa(lp1543
I1
aI0
aI1
aI0
aI0
aI0
aI1
aI0
aI1
aI0
aa(lp1544
I1
aI0
aI1
aI1
aI0
aI1
aI0
aI1
aI0
aI0
aa(lp1545
I1
aI0
aI0
aI1
aI1
aI0
aI1
aI0
aI0
aI0
aa(lp1546
I0
aI0
aI0
aI1
aI0
aI1
aI0
aI0
aI0
aI1
aa(lp1547
I1
aI1
aI0
aI1
aI1
aI0
aI0
aI0
aI1
aI0
aasg65
I0
sg23
g24
sbsg66
g67
sbsg1275
I1
sg1276
g1277
sba(iJobManager
Job
p1548
(dp1549
g3
g4
sg5
(ibanjo
Banjo
p1550
(dp1551
g8
Nsg9
S'/home/jesse/Workspace/School/MastersThesis/Program/output//BANJO-dream410-2011-12-16_22.07.13//banjo_q2//data/'
p1552
sg11
S'banjo_q2'
p1553
sg13
S'java -jar banjo.jar settingsFile=/home/jesse/Workspace/School/MastersThesis/Program/output//BANJO-dream410-2011-12-16_22.07.13//banjo_q2//banjo_settings.txt'
p1554
sg15
g16
sg17
S'/home/jesse/Workspace/School/MastersThesis/Program/output//BANJO-dream410-2011-12-16_22.07.13//banjo_q2//log/'
p1555
sg19
S'/home/jesse/Workspace/School/MastersThesis/Program/output//BANJO-dream410-2011-12-16_22.07.13//banjo_q2//banjo_program/'
p1556
sg21
S'/home/jesse/Workspace/School/MastersThesis/Program/output//BANJO-dream410-2011-12-16_22.07.13//banjo_q2/'
p1557
sg23
g24
sg35
g1556
sg36
(iNetwork
Network
p1558
(dp1559
g39
I00
sg36
(dp1560
g31
(dp1561
g31
F0.0
sg30
F1.0
sg29
F0.0
sg28
F1.0
sg27
F1.0
sg26
F1.0
sg25
F1.0
sg33
F0.0
sg32
F0.0
sg34
F0.0
ssg30
(dp1562
g31
F1.0
sg30
F0.0
sg29
F0.0
sg28
F0.0
sg27
F1.0
sg26
F1.0
sg25
F0.0
sg33
F0.0
sg32
F0.0
sg34
F1.0
ssg29
(dp1563
g31
F0.0
sg30
F0.0
sg29
F0.0
sg28
F1.0
sg27
F0.0
sg26
F0.0
sg25
F0.0
sg33
F0.0
sg32
F1.0
sg34
F1.0
ssg28
(dp1564
g31
F1.0
sg30
F0.0
sg29
F1.0
sg28
F0.0
sg27
F0.0
sg26
F0.0
sg25
F1.0
sg33
F0.0
sg32
F1.0
sg34
F1.0
ssg27
(dp1565
g31
F1.0
sg30
F1.0
sg29
F0.0
sg28
F0.0
sg27
F0.0
sg26
F1.0
sg25
F0.0
sg33
F0.0
sg32
F0.0
sg34
F1.0
ssg26
(dp1566
g31
F1.0
sg30
F1.0
sg29
F0.0
sg28
F0.0
sg27
F1.0
sg26
F0.0
sg25
F0.0
sg33
F1.0
sg32
F1.0
sg34
F0.0
ssg25
(dp1567
g31
F1.0
sg30
F0.0
sg29
F0.0
sg28
F1.0
sg27
F0.0
sg26
F0.0
sg25
F0.0
sg33
F0.0
sg32
F1.0
sg34
F1.0
ssg33
(dp1568
g31
F0.0
sg30
F0.0
sg29
F0.0
sg28
F0.0
sg27
F0.0
sg26
F1.0
sg25
F0.0
sg33
F0.0
sg32
F1.0
sg34
F1.0
ssg32
(dp1569
g31
F0.0
sg30
F0.0
sg29
F1.0
sg28
F1.0
sg27
F0.0
sg26
F1.0
sg25
F1.0
sg33
F1.0
sg32
F0.0
sg34
F0.0
ssg34
(dp1570
g31
F0.0
sg30
F1.0
sg29
F1.0
sg28
F1.0
sg27
F1.0
sg26
F0.0
sg25
F1.0
sg33
F1.0
sg32
F0.0
sg34
F0.0
sssg51
I0
sg52
I00
sg53
(lp1571
(lp1572
I0
aI0
aI0
aI1
aI0
aI0
aI1
aI1
aI0
aI1
aa(lp1573
I0
aI0
aI1
aI0
aI0
aI1
aI1
aI1
aI1
aI0
aa(lp1574
I0
aI1
aI0
aI0
aI0
aI1
aI1
aI0
aI0
aI1
aa(lp1575
I1
aI0
aI0
aI0
aI1
aI0
aI1
aI1
aI0
aI1
aa(lp1576
I0
aI0
aI0
aI1
aI0
aI0
aI0
aI1
aI0
aI1
aa(lp1577
I0
aI1
aI1
aI0
aI0
aI0
aI1
aI0
aI0
aI1
aa(lp1578
I1
aI1
aI1
aI1
aI0
aI1
aI0
aI0
aI0
aI0
aa(lp1579
I1
aI1
aI0
aI1
aI1
aI0
aI0
aI0
aI1
aI0
aa(lp1580
I0
aI1
aI0
aI0
aI0
aI0
aI0
aI1
aI0
aI1
aa(lp1581
I1
aI0
aI1
aI1
aI1
aI1
aI0
aI0
aI1
aI0
aasg65
I0
sg23
g24
sbsg66
g67
sbsg1275
I2
sg1276
g1277
sba(iJobManager
Job
p1582
(dp1583
g3
g4
sg5
(ibanjo
Banjo
p1584
(dp1585
g8
Nsg9
S'/home/jesse/Workspace/School/MastersThesis/Program/output//BANJO-dream410-2011-12-16_22.07.13//banjo_q6//data/'
p1586
sg11
S'banjo_q6'
p1587
sg13
S'java -jar banjo.jar settingsFile=/home/jesse/Workspace/School/MastersThesis/Program/output//BANJO-dream410-2011-12-16_22.07.13//banjo_q6//banjo_settings.txt'
p1588
sg15
g16
sg17
S'/home/jesse/Workspace/School/MastersThesis/Program/output//BANJO-dream410-2011-12-16_22.07.13//banjo_q6//log/'
p1589
sg19
S'/home/jesse/Workspace/School/MastersThesis/Program/output//BANJO-dream410-2011-12-16_22.07.13//banjo_q6//banjo_program/'
p1590
sg21
S'/home/jesse/Workspace/School/MastersThesis/Program/output//BANJO-dream410-2011-12-16_22.07.13//banjo_q6/'
p1591
sg23
g24
sg35
g1590
sg36
(iNetwork
Network
p1592
(dp1593
g39
I00
sg36
(dp1594
g31
(dp1595
g31
F0.0
sg30
F0.0
sg29
F0.0
sg28
F1.0
sg27
F1.0
sg26
F1.0
sg25
F1.0
sg33
F1.0
sg32
F1.0
sg34
F0.0
ssg30
(dp1596
g31
F0.0
sg30
F0.0
sg29
F0.0
sg28
F0.0
sg27
F1.0
sg26
F1.0
sg25
F0.0
sg33
F0.0
sg32
F0.0
sg34
F1.0
ssg29
(dp1597
g31
F0.0
sg30
F0.0
sg29
F0.0
sg28
F1.0
sg27
F0.0
sg26
F0.0
sg25
F1.0
sg33
F0.0
sg32
F1.0
sg34
F1.0
ssg28
(dp1598
g31
F1.0
sg30
F0.0
sg29
F1.0
sg28
F0.0
sg27
F0.0
sg26
F0.0
sg25
F1.0
sg33
F0.0
sg32
F1.0
sg34
F1.0
ssg27
(dp1599
g31
F1.0
sg30
F1.0
sg29
F0.0
sg28
F0.0
sg27
F0.0
sg26
F1.0
sg25
F0.0
sg33
F0.0
sg32
F0.0
sg34
F1.0
ssg26
(dp1600
g31
F1.0
sg30
F1.0
sg29
F0.0
sg28
F0.0
sg27
F1.0
sg26
F0.0
sg25
F0.0
sg33
F1.0
sg32
F0.0
sg34
F1.0
ssg25
(dp1601
g31
F1.0
sg30
F0.0
sg29
F1.0
sg28
F1.0
sg27
F0.0
sg26
F0.0
sg25
F0.0
sg33
F0.0
sg32
F1.0
sg34
F1.0
ssg33
(dp1602
g31
F1.0
sg30
F0.0
sg29
F0.0
sg28
F0.0
sg27
F0.0
sg26
F1.0
sg25
F0.0
sg33
F0.0
sg32
F0.0
sg34
F0.0
ssg32
(dp1603
g31
F1.0
sg30
F0.0
sg29
F1.0
sg28
F1.0
sg27
F0.0
sg26
F0.0
sg25
F1.0
sg33
F0.0
sg32
F0.0
sg34
F0.0
ssg34
(dp1604
g31
F0.0
sg30
F1.0
sg29
F1.0
sg28
F1.0
sg27
F1.0
sg26
F1.0
sg25
F1.0
sg33
F0.0
sg32
F0.0
sg34
F0.0
sssg51
I0
sg52
I00
sg53
(lp1605
(lp1606
I0
aI0
aI0
aI1
aI1
aI0
aI1
aI1
aI0
aI1
aa(lp1607
I0
aI0
aI1
aI0
aI0
aI1
aI1
aI0
aI1
aI1
aa(lp1608
I0
aI1
aI0
aI0
aI0
aI1
aI1
aI0
aI0
aI1
aa(lp1609
I1
aI0
aI0
aI0
aI1
aI0
aI1
aI1
aI0
aI1
aa(lp1610
I1
aI0
aI0
aI1
aI0
aI0
aI0
aI1
aI0
aI1
aa(lp1611
I0
aI1
aI1
aI0
aI0
aI0
aI0
aI0
aI0
aI1
aa(lp1612
I1
aI1
aI1
aI1
aI0
aI0
aI0
aI1
aI1
aI0
aa(lp1613
I1
aI0
aI0
aI1
aI1
aI0
aI1
aI0
aI0
aI0
aa(lp1614
I0
aI1
aI0
aI0
aI0
aI0
aI1
aI0
aI0
aI0
aa(lp1615
I1
aI1
aI1
aI1
aI1
aI1
aI0
aI0
aI0
aI0
aasg65
I0
sg23
g24
sbsg66
g67
sbsg1275
I4
sg1276
g1277
sba(iJobManager
Job
p1616
(dp1617
g3
g4
sg5
(ibanjo
Banjo
p1618
(dp1619
g8
Nsg9
S'/home/jesse/Workspace/School/MastersThesis/Program/output//BANJO-dream410-2011-12-16_22.07.13//banjo_q8//data/'
p1620
sg11
S'banjo_q8'
p1621
sg13
S'java -jar banjo.jar settingsFile=/home/jesse/Workspace/School/MastersThesis/Program/output//BANJO-dream410-2011-12-16_22.07.13//banjo_q8//banjo_settings.txt'
p1622
sg15
g16
sg17
S'/home/jesse/Workspace/School/MastersThesis/Program/output//BANJO-dream410-2011-12-16_22.07.13//banjo_q8//log/'
p1623
sg19
S'/home/jesse/Workspace/School/MastersThesis/Program/output//BANJO-dream410-2011-12-16_22.07.13//banjo_q8//banjo_program/'
p1624
sg21
S'/home/jesse/Workspace/School/MastersThesis/Program/output//BANJO-dream410-2011-12-16_22.07.13//banjo_q8/'
p1625
sg23
g24
sg35
g1624
sg36
(iNetwork
Network
p1626
(dp1627
g39
I00
sg36
(dp1628
g31
(dp1629
g31
F0.0
sg30
F0.0
sg29
F0.0
sg28
F1.0
sg27
F1.0
sg26
F1.0
sg25
F1.0
sg33
F0.0
sg32
F1.0
sg34
F0.0
ssg30
(dp1630
g31
F0.0
sg30
F0.0
sg29
F0.0
sg28
F0.0
sg27
F1.0
sg26
F1.0
sg25
F0.0
sg33
F0.0
sg32
F0.0
sg34
F1.0
ssg29
(dp1631
g31
F0.0
sg30
F0.0
sg29
F0.0
sg28
F1.0
sg27
F0.0
sg26
F0.0
sg25
F1.0
sg33
F0.0
sg32
F1.0
sg34
F1.0
ssg28
(dp1632
g31
F1.0
sg30
F0.0
sg29
F1.0
sg28
F0.0
sg27
F0.0
sg26
F0.0
sg25
F1.0
sg33
F0.0
sg32
F1.0
sg34
F1.0
ssg27
(dp1633
g31
F1.0
sg30
F1.0
sg29
F0.0
sg28
F0.0
sg27
F0.0
sg26
F1.0
sg25
F0.0
sg33
F0.0
sg32
F0.0
sg34
F1.0
ssg26
(dp1634
g31
F1.0
sg30
F1.0
sg29
F0.0
sg28
F0.0
sg27
F1.0
sg26
F0.0
sg25
F1.0
sg33
F1.0
sg32
F0.0
sg34
F1.0
ssg25
(dp1635
g31
F1.0
sg30
F0.0
sg29
F1.0
sg28
F1.0
sg27
F0.0
sg26
F1.0
sg25
F0.0
sg33
F0.0
sg32
F1.0
sg34
F1.0
ssg33
(dp1636
g31
F0.0
sg30
F0.0
sg29
F0.0
sg28
F0.0
sg27
F0.0
sg26
F1.0
sg25
F0.0
sg33
F0.0
sg32
F1.0
sg34
F0.0
ssg32
(dp1637
g31
F1.0
sg30
F0.0
sg29
F1.0
sg28
F1.0
sg27
F0.0
sg26
F0.0
sg25
F1.0
sg33
F1.0
sg32
F0.0
sg34
F0.0
ssg34
(dp1638
g31
F0.0
sg30
F1.0
sg29
F1.0
sg28
F1.0
sg27
F1.0
sg26
F1.0
sg25
F1.0
sg33
F0.0
sg32
F0.0
sg34
F0.0
sssg51
I0
sg52
I00
sg53
(lp1639
(lp1640
I0
aI1
aI0
aI1
aI1
aI0
aI1
aI1
aI0
aI1
aa(lp1641
I1
aI0
aI1
aI0
aI0
aI1
aI1
aI0
aI1
aI1
aa(lp1642
I0
aI1
aI0
aI0
aI0
aI1
aI1
aI0
aI0
aI1
aa(lp1643
I1
aI0
aI0
aI0
aI1
aI0
aI1
aI1
aI0
aI1
aa(lp1644
I1
aI0
aI0
aI1
aI0
aI0
aI0
aI1
aI0
aI1
aa(lp1645
I0
aI1
aI1
aI0
aI0
aI0
aI0
aI0
aI0
aI1
aa(lp1646
I1
aI1
aI1
aI1
aI0
aI0
aI0
aI1
aI0
aI0
aa(lp1647
I1
aI0
aI0
aI1
aI1
aI0
aI1
aI0
aI1
aI0
aa(lp1648
I0
aI1
aI0
aI0
aI0
aI0
aI0
aI1
aI0
aI0
aa(lp1649
I1
aI1
aI1
aI1
aI1
aI1
aI0
aI0
aI0
aI0
aasg65
I0
sg23
g24
sbsg66
g67
sbsg1275
I6
sg1276
g1277
sba(iJobManager
Job
p1650
(dp1651
g3
g4
sg5
(ibanjo
Banjo
p1652
(dp1653
g8
Nsg9
g1419
sg11
g1443
sg13
S'java -jar banjo.jar settingsFile=/home/jesse/Workspace/School/MastersThesis/Program/output//BANJO-dream410-2011-12-16_22.07.13//banjo_q9//banjo_settings.txt'
p1654
sg15
g16
sg17
g1426
sg19
S'/home/jesse/Workspace/School/MastersThesis/Program/output//BANJO-dream410-2011-12-16_22.07.13//banjo_q9//banjo_program/'
p1655
sg21
g1424
sg23
g24
sg35
g1655
sg36
(iNetwork
Network
p1656
(dp1657
g39
I00
sg36
(dp1658
g31
(dp1659
g31
F0.0
sg30
F1.0
sg29
F0.0
sg28
F1.0
sg27
F1.0
sg26
F0.0
sg25
F1.0
sg33
F0.0
sg32
F0.0
sg34
F0.0
ssg30
(dp1660
g31
F1.0
sg30
F0.0
sg29
F0.0
sg28
F0.0
sg27
F1.0
sg26
F1.0
sg25
F0.0
sg33
F0.0
sg32
F0.0
sg34
F0.0
ssg29
(dp1661
g31
F0.0
sg30
F0.0
sg29
F0.0
sg28
F1.0
sg27
F0.0
sg26
F0.0
sg25
F1.0
sg33
F0.0
sg32
F1.0
sg34
F1.0
ssg28
(dp1662
g31
F1.0
sg30
F0.0
sg29
F1.0
sg28
F0.0
sg27
F0.0
sg26
F0.0
sg25
F0.0
sg33
F0.0
sg32
F1.0
sg34
F1.0
ssg27
(dp1663
g31
F1.0
sg30
F1.0
sg29
F0.0
sg28
F0.0
sg27
F0.0
sg26
F1.0
sg25
F0.0
sg33
F0.0
sg32
F0.0
sg34
F1.0
ssg26
(dp1664
g31
F0.0
sg30
F1.0
sg29
F0.0
sg28
F0.0
sg27
F1.0
sg26
F0.0
sg25
F1.0
sg33
F1.0
sg32
F0.0
sg34
F0.0
ssg25
(dp1665
g31
F1.0
sg30
F0.0
sg29
F1.0
sg28
F0.0
sg27
F0.0
sg26
F1.0
sg25
F0.0
sg33
F0.0
sg32
F1.0
sg34
F1.0
ssg33
(dp1666
g31
F0.0
sg30
F0.0
sg29
F0.0
sg28
F0.0
sg27
F0.0
sg26
F1.0
sg25
F0.0
sg33
F0.0
sg32
F1.0
sg34
F0.0
ssg32
(dp1667
g31
F0.0
sg30
F0.0
sg29
F1.0
sg28
F1.0
sg27
F0.0
sg26
F0.0
sg25
F1.0
sg33
F1.0
sg32
F0.0
sg34
F0.0
ssg34
(dp1668
g31
F0.0
sg30
F0.0
sg29
F1.0
sg28
F1.0
sg27
F1.0
sg26
F0.0
sg25
F1.0
sg33
F0.0
sg32
F0.0
sg34
F0.0
sssg51
I0
sg52
I00
sg53
(lp1669
(lp1670
I0
aI1
aI0
aI0
aI1
aI0
aI1
aI1
aI0
aI1
aa(lp1671
I1
aI0
aI1
aI0
aI0
aI1
aI0
aI0
aI1
aI0
aa(lp1672
I0
aI1
aI0
aI0
aI0
aI1
aI1
aI0
aI0
aI1
aa(lp1673
I0
aI0
aI0
aI0
aI1
aI0
aI1
aI1
aI0
aI1
aa(lp1674
I1
aI0
aI0
aI1
aI0
aI0
aI0
aI1
aI0
aI1
aa(lp1675
I0
aI1
aI1
aI0
aI0
aI0
aI1
aI0
aI0
aI0
aa(lp1676
I1
aI0
aI1
aI1
aI0
aI1
aI0
aI0
aI0
aI0
aa(lp1677
I1
aI0
aI0
aI1
aI1
aI0
aI0
aI0
aI1
aI0
aa(lp1678
I0
aI1
aI0
aI0
aI0
aI0
aI0
aI1
aI0
aI0
aa(lp1679
I1
aI0
aI1
aI1
aI1
aI0
aI0
aI0
aI0
aI0
aasg65
I0
sg23
g24
sbsg66
g67
sbsg1275
I7
sg1276
g1277
sba(iJobManager
Job
p1680
(dp1681
g3
g4
sg5
(ibanjo
Banjo
p1682
(dp1683
g8
Nsg9
S'/home/jesse/Workspace/School/MastersThesis/Program/output//BANJO-dream410-2011-12-16_22.07.13//banjo_q7//data/'
p1684
sg11
S'banjo_q7'
p1685
sg13
S'java -jar banjo.jar settingsFile=/home/jesse/Workspace/School/MastersThesis/Program/output//BANJO-dream410-2011-12-16_22.07.13//banjo_q7//banjo_settings.txt'
p1686
sg15
g16
sg17
S'/home/jesse/Workspace/School/MastersThesis/Program/output//BANJO-dream410-2011-12-16_22.07.13//banjo_q7//log/'
p1687
sg19
S'/home/jesse/Workspace/School/MastersThesis/Program/output//BANJO-dream410-2011-12-16_22.07.13//banjo_q7//banjo_program/'
p1688
sg21
S'/home/jesse/Workspace/School/MastersThesis/Program/output//BANJO-dream410-2011-12-16_22.07.13//banjo_q7/'
p1689
sg23
g24
sg35
g1688
sg36
(iNetwork
Network
p1690
(dp1691
g39
I00
sg36
(dp1692
g31
(dp1693
g31
F0.0
sg30
F1.0
sg29
F0.0
sg28
F1.0
sg27
F1.0
sg26
F0.0
sg25
F1.0
sg33
F0.0
sg32
F0.0
sg34
F0.0
ssg30
(dp1694
g31
F1.0
sg30
F0.0
sg29
F0.0
sg28
F0.0
sg27
F1.0
sg26
F1.0
sg25
F0.0
sg33
F0.0
sg32
F0.0
sg34
F1.0
ssg29
(dp1695
g31
F0.0
sg30
F0.0
sg29
F0.0
sg28
F1.0
sg27
F0.0
sg26
F0.0
sg25
F1.0
sg33
F0.0
sg32
F1.0
sg34
F1.0
ssg28
(dp1696
g31
F1.0
sg30
F0.0
sg29
F1.0
sg28
F0.0
sg27
F0.0
sg26
F0.0
sg25
F1.0
sg33
F0.0
sg32
F1.0
sg34
F1.0
ssg27
(dp1697
g31
F1.0
sg30
F1.0
sg29
F0.0
sg28
F0.0
sg27
F0.0
sg26
F1.0
sg25
F0.0
sg33
F0.0
sg32
F0.0
sg34
F0.0
ssg26
(dp1698
g31
F0.0
sg30
F1.0
sg29
F0.0
sg28
F0.0
sg27
F1.0
sg26
F0.0
sg25
F1.0
sg33
F1.0
sg32
F0.0
sg34
F0.0
ssg25
(dp1699
g31
F1.0
sg30
F0.0
sg29
F1.0
sg28
F1.0
sg27
F0.0
sg26
F1.0
sg25
F0.0
sg33
F0.0
sg32
F1.0
sg34
F1.0
ssg33
(dp1700
g31
F0.0
sg30
F0.0
sg29
F0.0
sg28
F0.0
sg27
F0.0
sg26
F1.0
sg25
F0.0
sg33
F0.0
sg32
F1.0
sg34
F0.0
ssg32
(dp1701
g31
F0.0
sg30
F0.0
sg29
F1.0
sg28
F1.0
sg27
F0.0
sg26
F0.0
sg25
F1.0
sg33
F1.0
sg32
F0.0
sg34
F0.0
ssg34
(dp1702
g31
F0.0
sg30
F1.0
sg29
F1.0
sg28
F1.0
sg27
F0.0
sg26
F0.0
sg25
F1.0
sg33
F0.0
sg32
F0.0
sg34
F0.0
sssg51
I0
sg52
I00
sg53
(lp1703
(lp1704
I0
aI1
aI0
aI1
aI1
aI0
aI1
aI1
aI0
aI1
aa(lp1705
I1
aI0
aI1
aI0
aI0
aI1
aI0
aI0
aI1
aI0
aa(lp1706
I0
aI1
aI0
aI0
aI0
aI1
aI1
aI0
aI0
aI0
aa(lp1707
I1
aI0
aI0
aI0
aI1
aI0
aI1
aI1
aI0
aI1
aa(lp1708
I1
aI0
aI0
aI1
aI0
aI0
aI0
aI1
aI0
aI1
aa(lp1709
I0
aI1
aI1
aI0
aI0
aI0
aI1
aI0
aI0
aI1
aa(lp1710
I1
aI0
aI1
aI1
aI0
aI1
aI0
aI0
aI0
aI0
aa(lp1711
I1
aI0
aI0
aI1
aI1
aI0
aI0
aI0
aI1
aI0
aa(lp1712
I0
aI1
aI0
aI0
aI0
aI0
aI0
aI1
aI0
aI0
aa(lp1713
I1
aI0
aI0
aI1
aI1
aI1
aI0
aI0
aI0
aI0
aasg65
I0
sg23
g24
sbsg66
g67
sbsg1275
I5
sg1276
g1277
sba(lp1714
(g12
(dp1715
S'tn'
p1716
I47
sS'fp'
p1717
I38
sS'fn'
p1718
I7
sS'specificity'
p1719
F0.5529411764705883
sS'recall'
p1720
F0.5333333333333333
sS'sensitivity'
p1721
F0.5333333333333333
sS'precision'
p1722
F0.17391304347826086
sS'tp'
p1723
I8
sS'accuracy'
p1724
F0.55
stp1725
a(g1485
(dp1726
g1716
I52
sg1717
I33
sg1718
I8
sg1719
F0.611764705882353
sg1720
F0.4666666666666667
sg1721
F0.4666666666666667
sg1722
F0.175
sg1723
I7
sg1724
F0.59
stp1727
a(g1519
(dp1728
g1716
I51
sg1717
I34
sg1718
I9
sg1719
F0.6
sg1720
F0.4
sg1721
F0.4
sg1722
F0.15
sg1723
I6
sg1724
F0.57
stp1729
a(g1553
(dp1730
g1716
I50
sg1717
I35
sg1718
I6
sg1719
F0.5882352941176471
sg1720
F0.6
sg1721
F0.6
sg1722
F0.20454545454545456
sg1723
I9
sg1724
F0.59
stp1731
a(g1587
(dp1732
g1716
I49
sg1717
I36
sg1718
I7
sg1719
F0.5764705882352941
sg1720
F0.5333333333333333
sg1721
F0.5333333333333333
sg1722
F0.18181818181818182
sg1723
I8
sg1724
F0.57
stp1733
a(g1621
(dp1734
g1716
I48
sg1717
I37
sg1718
I6
sg1719
F0.5647058823529412
sg1720
F0.6
sg1721
F0.6
sg1722
F0.1956521739130435
sg1723
I9
sg1724
F0.57
stp1735
a(g1443
(dp1736
g1716
I55
sg1717
I30
sg1718
I7
sg1719
F0.6470588235294118
sg1720
F0.5333333333333333
sg1721
F0.5333333333333333
sg1722
F0.21052631578947367
sg1723
I8
sg1724
F0.63
stp1737
a(g1685
(dp1738
g1716
I53
sg1717
I32
sg1718
I7
sg1719
F0.6235294117647059
sg1720
F0.5333333333333333
sg1721
F0.5333333333333333
sg1722
F0.2
sg1723
I8
sg1724
F0.61
stp1739
a(lp1740
(g1553
cnumpy.core.multiarray
scalar
p1741
(cnumpy
dtype
p1742
(S'f8'
p1743
I0
I1
tp1744
Rp1745
(I3
S'<'
p1746
NNNI-1
I-1
I0
tp1747
bS'\x03\x03\x03\x03\x03\x03\xe3?'
p1748
tp1749
Rp1750
tp1751
a(g1519
g1741
(g1745
S'\x00\x00\x00\x00\x00\x00\xe0?'
p1752
tp1753
Rp1754
tp1755
a(g1485
g1741
(g1745
S'BAAAAA\xe1?'
p1756
tp1757
Rp1758
tp1759
a(g12
g1741
(g1745
S'aaaaaa\xe1?'
p1760
tp1761
Rp1762
tp1763
a(g1587
g1741
(g1745
S'\xc1\xc1\xc1\xc1\xc1\xc1\xe1?'
p1764
tp1765
Rp1766
tp1767
a(g1685
g1741
(g1745
S'\x82\x82\x82\x82\x82\x82\xe2?'
p1768
tp1769
Rp1770
tp1771
a(g1621
g1741
(g1745
S'\xa3\xa2\xa2\xa2\xa2\xa2\xe2?'
p1772
tp1773
Rp1774
tp1775
a(g1443
g1741
(g1745
S'\xe2\xe2\xe2\xe2\xe2\xe2\xe2?'
p1776
tp1777
Rp1778
tp1779
a(lp1780
(g1553
g1741
(g1745
S'\xab\xb3\xa5:[\xaa\xdb?'
p1781
tp1782
Rp1783
tp1784
a(g1519
g1741
(g1745
S'z\x14\xaeG\xe1z\xd4?'
p1785
tp1786
Rp1787
tp1788
a(g1485
g1741
(g1745
S'\x18K~\xb1\xe4\x17\xd7?'
p1789
tp1790
Rp1791
tp1792
a(g12
g1741
(g1745
S'\xa7\xe3*\xcb3\xdf\xd8?'
p1793
tp1794
Rp1795
tp1796
a(g1587
g1741
(g1745
S' a\xff\x11\xf6\x1f\xd9?'
p1797
tp1798
Rp1799
tp1800
a(g1685
g1741
(g1745
S'\xb5\x81N\x1b\xe8\xb4\xd9?'
p1801
tp1802
Rp1803
tp1804
a(g1621
g1741
(g1745
S'\x83\xa6\xf6\xaa\x80a\xdb?'
p1805
tp1806
Rp1807
tp1808
a(g1443
g1741
(g1745
S'\x19\x87\x10d#\x0b\xda?'
p1809
tp1810
Rp1811
tp1812
atp1813
.