(ibanjo
Banjo
p0
(dp1
S'exp_data'
p2
NsS'data_dir'
p3
S'/home/jesse/Workspace/School/MastersThesis/Program/output//BANJO-dream410-2011-12-16_22.07.13//banjo_q3//data/'
p4
sS'name'
p5
S'banjo_q3'
p6
sS'cmd'
p7
S'java -jar banjo.jar settingsFile=/home/jesse/Workspace/School/MastersThesis/Program/output//BANJO-dream410-2011-12-16_22.07.13//banjo_q3//banjo_settings.txt'
p8
sS'alg_name'
p9
S'banjo'
p10
sS'log_dir'
p11
S'/home/jesse/Workspace/School/MastersThesis/Program/output//BANJO-dream410-2011-12-16_22.07.13//banjo_q3//log/'
p12
sS'working_dir'
p13
S'/home/jesse/Workspace/School/MastersThesis/Program/output//BANJO-dream410-2011-12-16_22.07.13//banjo_q3//banjo_program/'
p14
sS'output_dir'
p15
S'/home/jesse/Workspace/School/MastersThesis/Program/output//BANJO-dream410-2011-12-16_22.07.13//banjo_q3/'
p16
sS'gene_list'
p17
(lp18
S'G1'
p19
aS'G2'
p20
aS'G3'
p21
aS'G4'
p22
aS'G5'
p23
aS'G6'
p24
aS'G7'
p25
aS'G8'
p26
aS'G9'
p27
aS'G10'
p28
asS'cwd'
p29
g14
sS'network'
p30
(iNetwork
Network
p31
(dp32
S'binary'
p33
I00
sg30
(dp34
g25
(dp35
g25
F0.0
sg24
F1.0
sg23
F0.0
sg22
F1.0
sg21
F1.0
sg20
F0.0
sg19
F1.0
sg27
F0.0
sg26
F1.0
sg28
F0.0
ssg24
(dp36
g25
F1.0
sg24
F0.0
sg23
F0.0
sg22
F0.0
sg21
F1.0
sg20
F0.0
sg19
F1.0
sg27
F1.0
sg26
F0.0
sg28
F0.0
ssg23
(dp37
g25
F0.0
sg24
F0.0
sg23
F0.0
sg22
F1.0
sg21
F0.0
sg20
F0.0
sg19
F1.0
sg27
F0.0
sg26
F1.0
sg28
F1.0
ssg22
(dp38
g25
F1.0
sg24
F0.0
sg23
F1.0
sg22
F0.0
sg21
F0.0
sg20
F0.0
sg19
F0.0
sg27
F1.0
sg26
F1.0
sg28
F1.0
ssg21
(dp39
g25
F1.0
sg24
F1.0
sg23
F0.0
sg22
F0.0
sg21
F0.0
sg20
F1.0
sg19
F0.0
sg27
F0.0
sg26
F0.0
sg28
F0.0
ssg20
(dp40
g25
F0.0
sg24
F0.0
sg23
F0.0
sg22
F0.0
sg21
F1.0
sg20
F0.0
sg19
F0.0
sg27
F0.0
sg26
F0.0
sg28
F1.0
ssg19
(dp41
g25
F1.0
sg24
F1.0
sg23
F1.0
sg22
F0.0
sg21
F0.0
sg20
F0.0
sg19
F0.0
sg27
F0.0
sg26
F1.0
sg28
F1.0
ssg27
(dp42
g25
F0.0
sg24
F1.0
sg23
F0.0
sg22
F1.0
sg21
F0.0
sg20
F0.0
sg19
F0.0
sg27
F0.0
sg26
F0.0
sg28
F1.0
ssg26
(dp43
g25
F1.0
sg24
F0.0
sg23
F1.0
sg22
F1.0
sg21
F0.0
sg20
F0.0
sg19
F1.0
sg27
F0.0
sg26
F0.0
sg28
F0.0
ssg28
(dp44
g25
F0.0
sg24
F0.0
sg23
F1.0
sg22
F1.0
sg21
F0.0
sg20
F1.0
sg19
F1.0
sg27
F1.0
sg26
F0.0
sg28
F0.0
sssS'cutoff'
p45
I0
sS'signed'
p46
I00
sS'original_network'
p47
(lp48
(lp49
I0
aI0
aI0
aI0
aI1
aI1
aI1
aI1
aI0
aI1
aa(lp50
I0
aI0
aI1
aI0
aI0
aI0
aI0
aI0
aI0
aI1
aa(lp51
I0
aI1
aI0
aI0
aI0
aI1
aI1
aI0
aI0
aI0
aa(lp52
I0
aI0
aI0
aI0
aI1
aI0
aI1
aI1
aI1
aI1
aa(lp53
I1
aI0
aI0
aI1
aI0
aI0
aI0
aI1
aI0
aI1
aa(lp54
I1
aI0
aI1
aI0
aI0
aI0
aI1
aI0
aI1
aI0
aa(lp55
I1
aI0
aI1
aI1
aI0
aI1
aI0
aI1
aI0
aI0
aa(lp56
I1
aI0
aI0
aI1
aI1
aI0
aI1
aI0
aI0
aI0
aa(lp57
I0
aI0
aI0
aI1
aI0
aI1
aI0
aI0
aI0
aI1
aa(lp58
I1
aI1
aI0
aI1
aI1
aI0
aI0
aI0
aI1
aI0
aasS'thresh'
p59
I0
sg17
g18
sbsS'input_files'
p60
(lp61
(iDataStore
MicroarrayData
p62
(dp63
S'experiments'
p64
(lp65
(iDataStore
Experiment
p66
(dp67
S'ratios'
p68
(dp69
g25
S'0.6067846'
p70
sg24
S'0.2754930'
p71
sg23
S'0.1004299'
p72
sg22
S'0.7745716'
p73
sg21
S'0.3550646'
p74
sg20
S'0.1272186'
p75
sg19
S'0.6665114'
p76
sg27
S'0.6656366'
p77
sg26
S'0.7430983'
p78
sg28
S'0.6950638'
p79
ssS'type'
p80
S'timeseries'
p81
sS'tfs'
p82
(lp83
sg5
S'0.0'
p84
sS'file'
p85
S'Timeseries-Rep3.csv'
p86
sba(iDataStore
Experiment
p87
(dp88
g68
(dp89
g25
S'0.6096963'
p90
sg24
S'0.3107637'
p91
sg23
S'0.1924591'
p92
sg22
S'0.7229108'
p93
sg21
S'0.3464115'
p94
sg20
S'0.1218223'
p95
sg19
S'0.3257748'
p96
sg27
S'0.5554138'
p97
sg26
S'0.7567515'
p98
sg28
S'0.7327167'
p99
ssg80
g81
sg82
g83
sg5
S'50.0'
p100
sg85
g86
sba(iDataStore
Experiment
p101
(dp102
g68
(dp103
g25
S'0.4647324'
p104
sg24
S'0.3569736'
p105
sg23
S'0.2333497'
p106
sg22
S'0.5868280'
p107
sg21
S'0.5712888'
p108
sg20
S'0.0443587'
p109
sg19
S'0.1775012'
p110
sg27
S'0.7211032'
p111
sg26
S'0.6656993'
p112
sg28
S'0.6717156'
p113
ssg80
g81
sg82
g83
sg5
S'100.0'
p114
sg85
g86
sba(iDataStore
Experiment
p115
(dp116
g68
(dp117
g25
S'0.4200074'
p118
sg24
S'0.3375671'
p119
sg23
S'0.4045100'
p120
sg22
S'0.6338205'
p121
sg21
S'0.4849771'
p122
sg20
S'0.0615354'
p123
sg19
S'0.1838851'
p124
sg27
S'0.6402268'
p125
sg26
S'0.7324089'
p126
sg28
S'0.6970434'
p127
ssg80
g81
sg82
g83
sg5
S'150.0'
p128
sg85
g86
sba(iDataStore
Experiment
p129
(dp130
g68
(dp131
g25
S'0.4145393'
p132
sg24
S'0.2994227'
p133
sg23
S'0.5583316'
p134
sg22
S'0.5354375'
p135
sg21
S'0.3435551'
p136
sg20
S'0.1398431'
p137
sg19
S'0.0930693'
p138
sg27
S'0.5478739'
p139
sg26
S'0.6771472'
p140
sg28
S'0.7512751'
p141
ssg80
g81
sg82
g83
sg5
S'200.0'
p142
sg85
g86
sba(iDataStore
Experiment
p143
(dp144
g68
(dp145
g25
S'0.5788573'
p146
sg24
S'0.3676576'
p147
sg23
S'0.6429076'
p148
sg22
S'0.5255509'
p149
sg21
S'0.3124305'
p150
sg20
S'0.0886361'
p151
sg19
S'0.0653015'
p152
sg27
S'0.5983088'
p153
sg26
S'0.8026375'
p154
sg28
S'0.6088625'
p155
ssg80
g81
sg82
g83
sg5
S'250.0'
p156
sg85
g86
sba(iDataStore
Experiment
p157
(dp158
g68
(dp159
g25
S'0.5993621'
p160
sg24
S'0.2992928'
p161
sg23
S'0.5350145'
p162
sg22
S'0.4599706'
p163
sg21
S'0.4126412'
p164
sg20
S'0.0948080'
p165
sg19
S'0.1502136'
p166
sg27
S'0.7288696'
p167
sg26
S'0.6181808'
p168
sg28
S'0.6660468'
p169
ssg80
g81
sg82
g83
sg5
S'300.0'
p170
sg85
g86
sba(iDataStore
Experiment
p171
(dp172
g68
(dp173
g25
S'0.6775364'
p174
sg24
S'0.3430145'
p175
sg23
S'0.5641511'
p176
sg22
S'0.4214017'
p177
sg21
S'0.3764574'
p178
sg20
S'0.0904510'
p179
sg19
S'0.0913323'
p180
sg27
S'0.7736935'
p181
sg26
S'0.5235399'
p182
sg28
S'0.7443968'
p183
ssg80
g81
sg82
g83
sg5
S'350.0'
p184
sg85
g86
sba(iDataStore
Experiment
p185
(dp186
g68
(dp187
g25
S'0.5142803'
p188
sg24
S'0.2333228'
p189
sg23
S'0.6718907'
p190
sg22
S'0.5030134'
p191
sg21
S'0.5188737'
p192
sg20
S'0.1182462'
p193
sg19
S'0.1358562'
p194
sg27
S'0.6843619'
p195
sg26
S'0.6087675'
p196
sg28
S'0.8365310'
p197
ssg80
g81
sg82
g83
sg5
S'400.0'
p198
sg85
g86
sba(iDataStore
Experiment
p199
(dp200
g68
(dp201
g25
S'0.4995680'
p202
sg24
S'0.3815948'
p203
sg23
S'0.6740419'
p204
sg22
S'0.4831358'
p205
sg21
S'0.3768678'
p206
sg20
S'0.0765614'
p207
sg19
S'0.1667014'
p208
sg27
S'0.7486546'
p209
sg26
S'0.5959077'
p210
sg28
S'0.7173045'
p211
ssg80
g81
sg82
g83
sg5
S'450.0'
p212
sg85
g86
sba(iDataStore
Experiment
p213
(dp214
g68
(dp215
g25
S'0.5091151'
p216
sg24
S'0.3344889'
p217
sg23
S'0.7354699'
p218
sg22
S'0.5403027'
p219
sg21
S'0.4322347'
p220
sg20
S'0.0755040'
p221
sg19
S'0.1170103'
p222
sg27
S'0.6725776'
p223
sg26
S'0.7152812'
p224
sg28
S'0.6325963'
p225
ssg80
g81
sg82
g83
sg5
S'500.0'
p226
sg85
g86
sba(iDataStore
Experiment
p227
(dp228
g68
(dp229
g25
S'0.4479249'
p230
sg24
S'0.3585150'
p231
sg23
S'0.4852550'
p232
sg22
S'0.6183860'
p233
sg21
S'0.3453156'
p234
sg20
S'0.0937210'
p235
sg19
S'0.4708819'
p236
sg27
S'0.7919255'
p237
sg26
S'0.7052075'
p238
sg28
S'0.5868152'
p239
ssg80
g81
sg82
g83
sg5
S'550.0'
p240
sg85
g86
sba(iDataStore
Experiment
p241
(dp242
g68
(dp243
g25
S'0.4196698'
p244
sg24
S'0.3239021'
p245
sg23
S'0.3257959'
p246
sg22
S'0.6233838'
p247
sg21
S'0.4763379'
p248
sg20
S'0.1443166'
p249
sg19
S'0.5545089'
p250
sg27
S'0.5791635'
p251
sg26
S'0.7299200'
p252
sg28
S'0.6029599'
p253
ssg80
g81
sg82
g83
sg5
S'600.0'
p254
sg85
g86
sba(iDataStore
Experiment
p255
(dp256
g68
(dp257
g25
S'0.4524902'
p258
sg24
S'0.2928635'
p259
sg23
S'0.2634359'
p260
sg22
S'0.6429242'
p261
sg21
S'0.3527660'
p262
sg20
S'0.1580246'
p263
sg19
S'0.5717737'
p264
sg27
S'0.6633159'
p265
sg26
S'0.7210641'
p266
sg28
S'0.6927663'
p267
ssg80
g81
sg82
g83
sg5
S'650.0'
p268
sg85
g86
sba(iDataStore
Experiment
p269
(dp270
g68
(dp271
g25
S'0.6356541'
p272
sg24
S'0.3049710'
p273
sg23
S'0.1906673'
p274
sg22
S'0.7448212'
p275
sg21
S'0.3817925'
p276
sg20
S'0.0906398'
p277
sg19
S'0.6437458'
p278
sg27
S'0.8094115'
p279
sg26
S'0.6836201'
p280
sg28
S'0.7286575'
p281
ssg80
g81
sg82
g83
sg5
S'700.0'
p282
sg85
g86
sba(iDataStore
Experiment
p283
(dp284
g68
(dp285
g25
S'0.5680143'
p286
sg24
S'0.2934906'
p287
sg23
S'0.1278089'
p288
sg22
S'0.6477586'
p289
sg21
S'0.4025808'
p290
sg20
S'0.0959292'
p291
sg19
S'0.6988616'
p292
sg27
S'0.6819686'
p293
sg26
S'0.7435989'
p294
sg28
S'0.8213812'
p295
ssg80
g81
sg82
g83
sg5
S'750.0'
p296
sg85
g86
sba(iDataStore
Experiment
p297
(dp298
g68
(dp299
g25
S'0.5652458'
p300
sg24
S'0.3429125'
p301
sg23
S'0.1340147'
p302
sg22
S'0.7884273'
p303
sg21
S'0.3520098'
p304
sg20
S'0.1251139'
p305
sg19
S'0.6002293'
p306
sg27
S'0.7548764'
p307
sg26
S'0.6701132'
p308
sg28
S'0.6814079'
p309
ssg80
g81
sg82
g83
sg5
S'800.0'
p310
sg85
g86
sba(iDataStore
Experiment
p311
(dp312
g68
(dp313
g25
S'0.3950302'
p314
sg24
S'0.3146772'
p315
sg23
S'0.1391781'
p316
sg22
S'0.7086632'
p317
sg21
S'0.4541817'
p318
sg20
S'0.0985328'
p319
sg19
S'0.7516840'
p320
sg27
S'0.6583495'
p321
sg26
S'0.6562918'
p322
sg28
S'0.6836276'
p323
ssg80
g81
sg82
g83
sg5
S'850.0'
p324
sg85
g86
sba(iDataStore
Experiment
p325
(dp326
g68
(dp327
g25
S'0.4627621'
p328
sg24
S'0.3309160'
p329
sg23
S'0.0960015'
p330
sg22
S'0.7009680'
p331
sg21
S'0.4254553'
p332
sg20
S'0.0823597'
p333
sg19
S'0.7058190'
p334
sg27
S'0.6866225'
p335
sg26
S'0.6610090'
p336
sg28
S'0.7453896'
p337
ssg80
g81
sg82
g83
sg5
S'900.0'
p338
sg85
g86
sba(iDataStore
Experiment
p339
(dp340
g68
(dp341
g25
S'0.5903798'
p342
sg24
S'0.3386791'
p343
sg23
S'0.1389801'
p344
sg22
S'0.6602306'
p345
sg21
S'0.3168437'
p346
sg20
S'0.1131190'
p347
sg19
S'0.6863142'
p348
sg27
S'0.7001660'
p349
sg26
S'0.6151949'
p350
sg28
S'0.6450720'
p351
ssg80
g81
sg82
g83
sg5
S'950.0'
p352
sg85
g86
sba(iDataStore
Experiment
p353
(dp354
g68
(dp355
g25
S'0.5938670'
p356
sg24
S'0.2846131'
p357
sg23
S'0.1181666'
p358
sg22
S'0.6695402'
p359
sg21
S'0.3340166'
p360
sg20
S'0.0780578'
p361
sg19
S'0.6785873'
p362
sg27
S'0.7702145'
p363
sg26
S'0.6823825'
p364
sg28
S'0.6068127'
p365
ssg80
g81
sg82
g83
sg5
S'1000.0'
p366
sg85
g86
sbasg80
g81
sS'timeseries_num'
p367
Nsg17
g18
sg60
(lp368
S'Timeseries-Rep0.csv'
p369
asba(iDataStore
MicroarrayData
p370
(dp371
g64
(lp372
(iDataStore
Experiment
p373
(dp374
g68
(dp375
g25
S'0.5905584'
p376
sg24
S'0.2494241'
p377
sg23
S'0.1445523'
p378
sg22
S'0.5990709'
p379
sg21
S'0.3080785'
p380
sg20
S'0.1735119'
p381
sg19
S'0.6927804'
p382
sg27
S'0.6891143'
p383
sg26
S'0.6367970'
p384
sg28
S'0.6944974'
p385
ssg80
g81
sg82
g83
sg5
S'0.0'
p386
sg85
g86
sba(iDataStore
Experiment
p387
(dp388
g68
(dp389
g25
S'0.2199619'
p390
sg24
S'0.3952169'
p391
sg23
S'0.2136285'
p392
sg22
S'0.6576991'
p393
sg21
S'0.2815777'
p394
sg20
S'0.0954328'
p395
sg19
S'0.6137000'
p396
sg27
S'0.6843410'
p397
sg26
S'0.5711943'
p398
sg28
S'0.6816443'
p399
ssg80
g81
sg82
g83
sg5
S'50.0'
p400
sg85
g86
sba(iDataStore
Experiment
p401
(dp402
g68
(dp403
g25
S'0.1706594'
p404
sg24
S'0.3336192'
p405
sg23
S'0.2556762'
p406
sg22
S'0.6349119'
p407
sg21
S'0.2896261'
p408
sg20
S'0.0704157'
p409
sg19
S'0.5923916'
p410
sg27
S'0.6408686'
p411
sg26
S'0.7645988'
p412
sg28
S'0.6201303'
p413
ssg80
g81
sg82
g83
sg5
S'100.0'
p414
sg85
g86
sba(iDataStore
Experiment
p415
(dp416
g68
(dp417
g25
S'0.1213159'
p418
sg24
S'0.3849495'
p419
sg23
S'0.1315485'
p420
sg22
S'0.5846269'
p421
sg21
S'0.1935983'
p422
sg20
S'0.0880437'
p423
sg19
S'0.5868361'
p424
sg27
S'0.8166294'
p425
sg26
S'0.7072442'
p426
sg28
S'0.7047542'
p427
ssg80
g81
sg82
g83
sg5
S'150.0'
p428
sg85
g86
sba(iDataStore
Experiment
p429
(dp430
g68
(dp431
g25
S'0.0786808'
p432
sg24
S'0.3736593'
p433
sg23
S'0.1687147'
p434
sg22
S'0.4509727'
p435
sg21
S'0.2186433'
p436
sg20
S'0.1149911'
p437
sg19
S'0.6293309'
p438
sg27
S'0.8038210'
p439
sg26
S'0.6970827'
p440
sg28
S'0.6925731'
p441
ssg80
g81
sg82
g83
sg5
S'200.0'
p442
sg85
g86
sba(iDataStore
Experiment
p443
(dp444
g68
(dp445
g25
S'0.1242939'
p446
sg24
S'0.3834565'
p447
sg23
S'0.1772348'
p448
sg22
S'0.4333604'
p449
sg21
S'0.2137598'
p450
sg20
S'0.0990501'
p451
sg19
S'0.5170203'
p452
sg27
S'0.7563581'
p453
sg26
S'0.7901656'
p454
sg28
S'0.7286596'
p455
ssg80
g81
sg82
g83
sg5
S'250.0'
p456
sg85
g86
sba(iDataStore
Experiment
p457
(dp458
g68
(dp459
g25
S'0.1323223'
p460
sg24
S'0.4000143'
p461
sg23
S'0.2365102'
p462
sg22
S'0.3898388'
p463
sg21
S'0.2892190'
p464
sg20
S'0.1159865'
p465
sg19
S'0.4709636'
p466
sg27
S'0.7090849'
p467
sg26
S'0.6791003'
p468
sg28
S'0.8249540'
p469
ssg80
g81
sg82
g83
sg5
S'300.0'
p470
sg85
g86
sba(iDataStore
Experiment
p471
(dp472
g68
(dp473
g25
S'0.0792747'
p474
sg24
S'0.3912156'
p475
sg23
S'0.2065817'
p476
sg22
S'0.4384157'
p477
sg21
S'0.2997476'
p478
sg20
S'0.0802760'
p479
sg19
S'0.6269998'
p480
sg27
S'0.6641130'
p481
sg26
S'0.6322451'
p482
sg28
S'0.7280306'
p483
ssg80
g81
sg82
g83
sg5
S'350.0'
p484
sg85
g86
sba(iDataStore
Experiment
p485
(dp486
g68
(dp487
g25
S'0.1492018'
p488
sg24
S'0.2349554'
p489
sg23
S'0.1484264'
p490
sg22
S'0.3779466'
p491
sg21
S'0.2573068'
p492
sg20
S'0.1042932'
p493
sg19
S'0.5284701'
p494
sg27
S'0.7596715'
p495
sg26
S'0.7928320'
p496
sg28
S'0.7133538'
p497
ssg80
g81
sg82
g83
sg5
S'400.0'
p498
sg85
g86
sba(iDataStore
Experiment
p499
(dp500
g68
(dp501
g25
S'0.1158488'
p502
sg24
S'0.4213528'
p503
sg23
S'0.1235777'
p504
sg22
S'0.3494604'
p505
sg21
S'0.2196169'
p506
sg20
S'0.1482319'
p507
sg19
S'0.5110939'
p508
sg27
S'0.7145425'
p509
sg26
S'0.6740440'
p510
sg28
S'0.7374688'
p511
ssg80
g81
sg82
g83
sg5
S'450.0'
p512
sg85
g86
sba(iDataStore
Experiment
p513
(dp514
g68
(dp515
g25
S'0.1350158'
p516
sg24
S'0.4517705'
p517
sg23
S'0.2365731'
p518
sg22
S'0.4211469'
p519
sg21
S'0.3025012'
p520
sg20
S'0.1153365'
p521
sg19
S'0.4882966'
p522
sg27
S'0.7176833'
p523
sg26
S'0.6484841'
p524
sg28
S'0.6872276'
p525
ssg80
g81
sg82
g83
sg5
S'500.0'
p526
sg85
g86
sba(iDataStore
Experiment
p527
(dp528
g68
(dp529
g25
S'0.6042338'
p530
sg24
S'0.3075680'
p531
sg23
S'0.2487479'
p532
sg22
S'0.4513658'
p533
sg21
S'0.3245931'
p534
sg20
S'0.1181288'
p535
sg19
S'0.6433641'
p536
sg27
S'0.6728155'
p537
sg26
S'0.7092563'
p538
sg28
S'0.6264014'
p539
ssg80
g81
sg82
g83
sg5
S'550.0'
p540
sg85
g86
sba(iDataStore
Experiment
p541
(dp542
g68
(dp543
g25
S'0.6519328'
p544
sg24
S'0.3823430'
p545
sg23
S'0.1447856'
p546
sg22
S'0.6388667'
p547
sg21
S'0.3060205'
p548
sg20
S'0.1228048'
p549
sg19
S'0.6171846'
p550
sg27
S'0.8328277'
p551
sg26
S'0.8569027'
p552
sg28
S'0.6102972'
p553
ssg80
g81
sg82
g83
sg5
S'600.0'
p554
sg85
g86
sba(iDataStore
Experiment
p555
(dp556
g68
(dp557
g25
S'0.6791125'
p558
sg24
S'0.3415498'
p559
sg23
S'0.1544187'
p560
sg22
S'0.6134333'
p561
sg21
S'0.3987270'
p562
sg20
S'0.0804874'
p563
sg19
S'0.8024419'
p564
sg27
S'0.6930467'
p565
sg26
S'0.7222545'
p566
sg28
S'0.6109138'
p567
ssg80
g81
sg82
g83
sg5
S'650.0'
p568
sg85
g86
sba(iDataStore
Experiment
p569
(dp570
g68
(dp571
g25
S'0.5099839'
p572
sg24
S'0.3402294'
p573
sg23
S'0.1578423'
p574
sg22
S'0.6801495'
p575
sg21
S'0.3594883'
p576
sg20
S'0.0871222'
p577
sg19
S'0.7804539'
p578
sg27
S'0.6455296'
p579
sg26
S'0.7069292'
p580
sg28
S'0.7232683'
p581
ssg80
g81
sg82
g83
sg5
S'700.0'
p582
sg85
g86
sba(iDataStore
Experiment
p583
(dp584
g68
(dp585
g25
S'0.5312501'
p586
sg24
S'0.3014502'
p587
sg23
S'0.0912002'
p588
sg22
S'0.6614428'
p589
sg21
S'0.4407318'
p590
sg20
S'0.0996338'
p591
sg19
S'0.8290307'
p592
sg27
S'0.6898205'
p593
sg26
S'0.6374457'
p594
sg28
S'0.5949425'
p595
ssg80
g81
sg82
g83
sg5
S'750.0'
p596
sg85
g86
sba(iDataStore
Experiment
p597
(dp598
g68
(dp599
g25
S'0.3978822'
p600
sg24
S'0.3563181'
p601
sg23
S'0.1013723'
p602
sg22
S'0.6225854'
p603
sg21
S'0.3369789'
p604
sg20
S'0.0988457'
p605
sg19
S'0.7490433'
p606
sg27
S'0.7440107'
p607
sg26
S'0.6009584'
p608
sg28
S'0.7923625'
p609
ssg80
g81
sg82
g83
sg5
S'800.0'
p610
sg85
g86
sba(iDataStore
Experiment
p611
(dp612
g68
(dp613
g25
S'0.3892781'
p614
sg24
S'0.3467893'
p615
sg23
S'0.1361985'
p616
sg22
S'0.7599636'
p617
sg21
S'0.4387776'
p618
sg20
S'0.0482351'
p619
sg19
S'0.5887312'
p620
sg27
S'0.6533540'
p621
sg26
S'0.6715002'
p622
sg28
S'0.7493886'
p623
ssg80
g81
sg82
g83
sg5
S'850.0'
p624
sg85
g86
sba(iDataStore
Experiment
p625
(dp626
g68
(dp627
g25
S'0.4222378'
p628
sg24
S'0.3105481'
p629
sg23
S'0.1683970'
p630
sg22
S'0.5764897'
p631
sg21
S'0.3228902'
p632
sg20
S'0.1078080'
p633
sg19
S'0.6694072'
p634
sg27
S'0.6421272'
p635
sg26
S'0.7085699'
p636
sg28
S'0.6938667'
p637
ssg80
g81
sg82
g83
sg5
S'900.0'
p638
sg85
g86
sba(iDataStore
Experiment
p639
(dp640
g68
(dp641
g25
S'0.5092373'
p642
sg24
S'0.2960746'
p643
sg23
S'0.1180917'
p644
sg22
S'0.7964334'
p645
sg21
S'0.2685038'
p646
sg20
S'0.0819181'
p647
sg19
S'0.7164183'
p648
sg27
S'0.6454818'
p649
sg26
S'0.7121105'
p650
sg28
S'0.6612289'
p651
ssg80
g81
sg82
g83
sg5
S'950.0'
p652
sg85
g86
sba(iDataStore
Experiment
p653
(dp654
g68
(dp655
g25
S'0.5376463'
p656
sg24
S'0.2432311'
p657
sg23
S'0.1803657'
p658
sg22
S'0.6352872'
p659
sg21
S'0.3146458'
p660
sg20
S'0.1198640'
p661
sg19
S'0.8032117'
p662
sg27
S'0.6253106'
p663
sg26
S'0.6763547'
p664
sg28
S'0.5716938'
p665
ssg80
g81
sg82
g83
sg5
S'1000.0'
p666
sg85
g86
sbasg80
g81
sg367
Nsg17
(lp667
g19
ag20
ag21
ag22
ag23
ag24
ag25
ag26
ag27
ag28
asg60
(lp668
S'Timeseries-Rep1.csv'
p669
asba(iDataStore
MicroarrayData
p670
(dp671
g64
(lp672
(iDataStore
Experiment
p673
(dp674
g68
(dp675
g25
S'0.5852446'
p676
sg24
S'0.2777284'
p677
sg23
S'0.1394119'
p678
sg22
S'0.6290043'
p679
sg21
S'0.4955336'
p680
sg20
S'0.0965407'
p681
sg19
S'0.7025546'
p682
sg27
S'0.7189792'
p683
sg26
S'0.6987308'
p684
sg28
S'0.6317014'
p685
ssg80
g81
sg82
g83
sg5
S'0.0'
p686
sg85
g86
sba(iDataStore
Experiment
p687
(dp688
g68
(dp689
g25
S'0.3879914'
p690
sg24
S'0.3160889'
p691
sg23
S'0.1601289'
p692
sg22
S'0.6331020'
p693
sg21
S'0.4120065'
p694
sg20
S'0.0066399'
p695
sg19
S'0.2670111'
p696
sg27
S'0.8405381'
p697
sg26
S'0.3125419'
p698
sg28
S'0.7525926'
p699
ssg80
g81
sg82
g83
sg5
S'50.0'
p700
sg85
g86
sba(iDataStore
Experiment
p701
(dp702
g68
(dp703
g25
S'0.5371867'
p704
sg24
S'0.4121452'
p705
sg23
S'0.3527526'
p706
sg22
S'0.6388113'
p707
sg21
S'0.3162661'
p708
sg20
S'0.0002031'
p709
sg19
S'0.1495577'
p710
sg27
S'0.7847303'
p711
sg26
S'0.2207124'
p712
sg28
S'0.6308077'
p713
ssg80
g81
sg82
g83
sg5
S'100.0'
p714
sg85
g86
sba(iDataStore
Experiment
p715
(dp716
g68
(dp717
g25
S'0.5854555'
p718
sg24
S'0.4561672'
p719
sg23
S'0.5828865'
p720
sg22
S'0.5332911'
p721
sg21
S'0.3444491'
p722
sg20
S'0.0000726'
p723
sg19
S'0.1258573'
p724
sg27
S'0.6864760'
p725
sg26
S'0.1641590'
p726
sg28
S'0.6603441'
p727
ssg80
g81
sg82
g83
sg5
S'150.0'
p728
sg85
g86
sba(iDataStore
Experiment
p729
(dp730
g68
(dp731
g25
S'0.4715633'
p732
sg24
S'0.5160537'
p733
sg23
S'0.6474004'
p734
sg22
S'0.4870183'
p735
sg21
S'0.3601180'
p736
sg20
S'0.0007181'
p737
sg19
S'0.1503708'
p738
sg27
S'0.7514894'
p739
sg26
S'0.1138825'
p740
sg28
S'0.7220521'
p741
ssg80
g81
sg82
g83
sg5
S'200.0'
p742
sg85
g86
sba(iDataStore
Experiment
p743
(dp744
g68
(dp745
g25
S'0.5616858'
p746
sg24
S'0.5849437'
p747
sg23
S'0.5962019'
p748
sg22
S'0.3816565'
p749
sg21
S'0.2514869'
p750
sg20
S'0.0010901'
p751
sg19
S'0.1147272'
p752
sg27
S'0.7451011'
p753
sg26
S'0.0875836'
p754
sg28
S'0.9215333'
p755
ssg80
g81
sg82
g83
sg5
S'250.0'
p756
sg85
g86
sba(iDataStore
Experiment
p757
(dp758
g68
(dp759
g25
S'0.5828932'
p760
sg24
S'0.6962295'
p761
sg23
S'0.7206053'
p762
sg22
S'0.4027960'
p763
sg21
S'0.4130228'
p764
sg20
S'0.0006993'
p765
sg19
S'0.1136885'
p766
sg27
S'0.7346484'
p767
sg26
S'0.1047608'
p768
sg28
S'0.6120013'
p769
ssg80
g81
sg82
g83
sg5
S'300.0'
p770
sg85
g86
sba(iDataStore
Experiment
p771
(dp772
g68
(dp773
g25
S'0.5699641'
p774
sg24
S'0.6188064'
p775
sg23
S'0.6110892'
p776
sg22
S'0.4555527'
p777
sg21
S'0.5144453'
p778
sg20
S'0.0006402'
p779
sg19
S'0.1074903'
p780
sg27
S'0.7260995'
p781
sg26
S'0.1494655'
p782
sg28
S'0.7034582'
p783
ssg80
g81
sg82
g83
sg5
S'350.0'
p784
sg85
g86
sba(iDataStore
Experiment
p785
(dp786
g68
(dp787
g25
S'0.5705248'
p788
sg24
S'0.6340790'
p789
sg23
S'0.7049432'
p790
sg22
S'0.4184513'
p791
sg21
S'0.3046374'
p792
sg20
S'0.0000216'
p793
sg19
S'0.0916218'
p794
sg27
S'0.7072688'
p795
sg26
S'0.1345381'
p796
sg28
S'0.7037104'
p797
ssg80
g81
sg82
g83
sg5
S'400.0'
p798
sg85
g86
sba(iDataStore
Experiment
p799
(dp800
g68
(dp801
g25
S'0.5182417'
p802
sg24
S'0.4893698'
p803
sg23
S'0.6032927'
p804
sg22
S'0.4398207'
p805
sg21
S'0.4381759'
p806
sg20
S'0.0001071'
p807
sg19
S'0.0704370'
p808
sg27
S'0.7245269'
p809
sg26
S'0.1445357'
p810
sg28
S'0.6900767'
p811
ssg80
g81
sg82
g83
sg5
S'450.0'
p812
sg85
g86
sba(iDataStore
Experiment
p813
(dp814
g68
(dp815
g25
S'0.5254869'
p816
sg24
S'0.5912179'
p817
sg23
S'0.6065379'
p818
sg22
S'0.4081400'
p819
sg21
S'0.4247121'
p820
sg20
S'0.0000243'
p821
sg19
S'0.1084545'
p822
sg27
S'0.7796607'
p823
sg26
S'0.1195000'
p824
sg28
S'0.7214128'
p825
ssg80
g81
sg82
g83
sg5
S'500.0'
p826
sg85
g86
sba(iDataStore
Experiment
p827
(dp828
g68
(dp829
g25
S'0.4837116'
p830
sg24
S'0.5662445'
p831
sg23
S'0.6220579'
p832
sg22
S'0.4666379'
p833
sg21
S'0.3493963'
p834
sg20
S'0.1669844'
p835
sg19
S'0.4934324'
p836
sg27
S'0.7879295'
p837
sg26
S'0.5461221'
p838
sg28
S'0.7344458'
p839
ssg80
g81
sg82
g83
sg5
S'550.0'
p840
sg85
g86
sba(iDataStore
Experiment
p841
(dp842
g68
(dp843
g25
S'0.5869444'
p844
sg24
S'0.4739788'
p845
sg23
S'0.3116094'
p846
sg22
S'0.5659879'
p847
sg21
S'0.2905074'
p848
sg20
S'0.1396843'
p849
sg19
S'0.6485525'
p850
sg27
S'0.6549880'
p851
sg26
S'0.6502586'
p852
sg28
S'0.6450217'
p853
ssg80
g81
sg82
g83
sg5
S'600.0'
p854
sg85
g86
sba(iDataStore
Experiment
p855
(dp856
g68
(dp857
g25
S'0.5316969'
p858
sg24
S'0.3214644'
p859
sg23
S'0.3052366'
p860
sg22
S'0.5786856'
p861
sg21
S'0.4188026'
p862
sg20
S'0.0786818'
p863
sg19
S'0.7971715'
p864
sg27
S'0.6432834'
p865
sg26
S'0.7105375'
p866
sg28
S'0.7139627'
p867
ssg80
g81
sg82
g83
sg5
S'650.0'
p868
sg85
g86
sba(iDataStore
Experiment
p869
(dp870
g68
(dp871
g25
S'0.4560579'
p872
sg24
S'0.3322274'
p873
sg23
S'0.1586621'
p874
sg22
S'0.6022758'
p875
sg21
S'0.4350727'
p876
sg20
S'0.0780344'
p877
sg19
S'0.5833888'
p878
sg27
S'0.6150558'
p879
sg26
S'0.6787980'
p880
sg28
S'0.7626299'
p881
ssg80
g81
sg82
g83
sg5
S'700.0'
p882
sg85
g86
sba(iDataStore
Experiment
p883
(dp884
g68
(dp885
g25
S'0.3600829'
p886
sg24
S'0.3789285'
p887
sg23
S'0.1446601'
p888
sg22
S'0.6865068'
p889
sg21
S'0.3151357'
p890
sg20
S'0.1123633'
p891
sg19
S'0.7644667'
p892
sg27
S'0.7599346'
p893
sg26
S'0.6422636'
p894
sg28
S'0.7957661'
p895
ssg80
g81
sg82
g83
sg5
S'750.0'
p896
sg85
g86
sba(iDataStore
Experiment
p897
(dp898
g68
(dp899
g25
S'0.5459900'
p900
sg24
S'0.3403691'
p901
sg23
S'0.1015360'
p902
sg22
S'0.6589912'
p903
sg21
S'0.3121278'
p904
sg20
S'0.1890966'
p905
sg19
S'0.7656012'
p906
sg27
S'0.8074774'
p907
sg26
S'0.8619677'
p908
sg28
S'0.7599446'
p909
ssg80
g81
sg82
g83
sg5
S'800.0'
p910
sg85
g86
sba(iDataStore
Experiment
p911
(dp912
g68
(dp913
g25
S'0.4768284'
p914
sg24
S'0.3956457'
p915
sg23
S'0.2198009'
p916
sg22
S'0.6910229'
p917
sg21
S'0.4633630'
p918
sg20
S'0.1077332'
p919
sg19
S'0.6111505'
p920
sg27
S'0.6190746'
p921
sg26
S'0.6286063'
p922
sg28
S'0.6722002'
p923
ssg80
g81
sg82
g83
sg5
S'850.0'
p924
sg85
g86
sba(iDataStore
Experiment
p925
(dp926
g68
(dp927
g25
S'0.4367724'
p928
sg24
S'0.3303212'
p929
sg23
S'0.1483400'
p930
sg22
S'0.6404274'
p931
sg21
S'0.3130161'
p932
sg20
S'0.1118654'
p933
sg19
S'0.6721184'
p934
sg27
S'0.7121735'
p935
sg26
S'0.7552463'
p936
sg28
S'0.6523538'
p937
ssg80
g81
sg82
g83
sg5
S'900.0'
p938
sg85
g86
sba(iDataStore
Experiment
p939
(dp940
g68
(dp941
g25
S'0.4847003'
p942
sg24
S'0.3811676'
p943
sg23
S'0.1128817'
p944
sg22
S'0.6113299'
p945
sg21
S'0.3330950'
p946
sg20
S'0.1164068'
p947
sg19
S'0.6289104'
p948
sg27
S'0.7135124'
p949
sg26
S'0.7976182'
p950
sg28
S'0.7852974'
p951
ssg80
g81
sg82
g83
sg5
S'950.0'
p952
sg85
g86
sba(iDataStore
Experiment
p953
(dp954
g68
(dp955
g25
S'0.5258812'
p956
sg24
S'0.3700837'
p957
sg23
S'0.1406588'
p958
sg22
S'0.6687344'
p959
sg21
S'0.3590816'
p960
sg20
S'0.0879682'
p961
sg19
S'0.7712319'
p962
sg27
S'0.7878045'
p963
sg26
S'0.7604233'
p964
sg28
S'0.6290981'
p965
ssg80
g81
sg82
g83
sg5
S'1000.0'
p966
sg85
g86
sbasg80
g81
sg367
Nsg17
(lp967
g19
ag20
ag21
ag22
ag23
ag24
ag25
ag26
ag27
ag28
asg60
(lp968
S'Timeseries-Rep2.csv'
p969
asba(iDataStore
MicroarrayData
p970
(dp971
g64
(lp972
(iDataStore
Experiment
p973
(dp974
g68
(dp975
g25
S'0.3970339'
p976
sg24
S'0.2432843'
p977
sg23
S'0.1237001'
p978
sg22
S'0.7087402'
p979
sg21
S'0.5393216'
p980
sg20
S'0.1646974'
p981
sg19
S'0.7291507'
p982
sg27
S'0.6285854'
p983
sg26
S'0.7599215'
p984
sg28
S'0.6076601'
p985
ssg80
g81
sg82
g83
sg5
S'0.0'
p986
sg85
g86
sba(iDataStore
Experiment
p987
(dp988
g68
(dp989
g25
S'0.1468781'
p990
sg24
S'0.4088945'
p991
sg23
S'0.1012508'
p992
sg22
S'0.6874071'
p993
sg21
S'0.3894485'
p994
sg20
S'0.1803674'
p995
sg19
S'0.5109302'
p996
sg27
S'0.4169359'
p997
sg26
S'0.3528068'
p998
sg28
S'0.7657149'
p999
ssg80
g81
sg82
g83
sg5
S'50.0'
p1000
sg85
g86
sba(iDataStore
Experiment
p1001
(dp1002
g68
(dp1003
g25
S'0.0264118'
p1004
sg24
S'0.4252275'
p1005
sg23
S'0.1486603'
p1006
sg22
S'0.5980135'
p1007
sg21
S'0.2565762'
p1008
sg20
S'0.1875477'
p1009
sg19
S'0.6097374'
p1010
sg27
S'0.4086711'
p1011
sg26
S'0.3565534'
p1012
sg28
S'0.8156564'
p1013
ssg80
g81
sg82
g83
sg5
S'100.0'
p1014
sg85
g86
sba(iDataStore
Experiment
p1015
(dp1016
g68
(dp1017
g25
S'0.0259651'
p1018
sg24
S'0.4733397'
p1019
sg23
S'0.1471183'
p1020
sg22
S'0.4758323'
p1021
sg21
S'0.1696391'
p1022
sg20
S'0.2070564'
p1023
sg19
S'0.7059362'
p1024
sg27
S'0.3558222'
p1025
sg26
S'0.2819844'
p1026
sg28
S'0.7042378'
p1027
ssg80
g81
sg82
g83
sg5
S'150.0'
p1028
sg85
g86
sba(iDataStore
Experiment
p1029
(dp1030
g68
(dp1031
g25
S'0.0067659'
p1032
sg24
S'0.5552323'
p1033
sg23
S'0.1409376'
p1034
sg22
S'0.3854643'
p1035
sg21
S'0.2447503'
p1036
sg20
S'0.2695352'
p1037
sg19
S'0.7791460'
p1038
sg27
S'0.4058957'
p1039
sg26
S'0.1862479'
p1040
sg28
S'0.6916045'
p1041
ssg80
g81
sg82
g83
sg5
S'200.0'
p1042
sg85
g86
sba(iDataStore
Experiment
p1043
(dp1044
g68
(dp1045
g25
S'0.0094517'
p1046
sg24
S'0.4274730'
p1047
sg23
S'0.0985869'
p1048
sg22
S'0.4492310'
p1049
sg21
S'0.1712229'
p1050
sg20
S'0.3182197'
p1051
sg19
S'0.7512179'
p1052
sg27
S'0.3565842'
p1053
sg26
S'0.2538905'
p1054
sg28
S'0.7226358'
p1055
ssg80
g81
sg82
g83
sg5
S'250.0'
p1056
sg85
g86
sba(iDataStore
Experiment
p1057
(dp1058
g68
(dp1059
g25
S'0.0019713'
p1060
sg24
S'0.5281481'
p1061
sg23
S'0.1500982'
p1062
sg22
S'0.3920308'
p1063
sg21
S'0.2081826'
p1064
sg20
S'0.2300156'
p1065
sg19
S'0.6662777'
p1066
sg27
S'0.2789396'
p1067
sg26
S'0.2450673'
p1068
sg28
S'0.8015413'
p1069
ssg80
g81
sg82
g83
sg5
S'300.0'
p1070
sg85
g86
sba(iDataStore
Experiment
p1071
(dp1072
g68
(dp1073
g25
S'0.0114260'
p1074
sg24
S'0.5760348'
p1075
sg23
S'0.1285197'
p1076
sg22
S'0.3937747'
p1077
sg21
S'0.2921507'
p1078
sg20
S'0.2564993'
p1079
sg19
S'0.6446435'
p1080
sg27
S'0.2805749'
p1081
sg26
S'0.1746718'
p1082
sg28
S'0.7041561'
p1083
ssg80
g81
sg82
g83
sg5
S'350.0'
p1084
sg85
g86
sba(iDataStore
Experiment
p1085
(dp1086
g68
(dp1087
g25
S'0.0138563'
p1088
sg24
S'0.5195734'
p1089
sg23
S'0.1167303'
p1090
sg22
S'0.5795062'
p1091
sg21
S'0.1989521'
p1092
sg20
S'0.2767497'
p1093
sg19
S'0.7309197'
p1094
sg27
S'0.3775839'
p1095
sg26
S'0.2548303'
p1096
sg28
S'0.7438145'
p1097
ssg80
g81
sg82
g83
sg5
S'400.0'
p1098
sg85
g86
sba(iDataStore
Experiment
p1099
(dp1100
g68
(dp1101
g25
S'0.0025197'
p1102
sg24
S'0.4616732'
p1103
sg23
S'0.1496491'
p1104
sg22
S'0.3893692'
p1105
sg21
S'0.2291561'
p1106
sg20
S'0.2384708'
p1107
sg19
S'0.7241511'
p1108
sg27
S'0.3453198'
p1109
sg26
S'0.1916132'
p1110
sg28
S'0.7157578'
p1111
ssg80
g81
sg82
g83
sg5
S'450.0'
p1112
sg85
g86
sba(iDataStore
Experiment
p1113
(dp1114
g68
(dp1115
g25
S'0.0070070'
p1116
sg24
S'0.4998435'
p1117
sg23
S'0.1109189'
p1118
sg22
S'0.2895560'
p1119
sg21
S'0.2398097'
p1120
sg20
S'0.2557487'
p1121
sg19
S'0.6861697'
p1122
sg27
S'0.3096857'
p1123
sg26
S'0.1959993'
p1124
sg28
S'0.6144597'
p1125
ssg80
g81
sg82
g83
sg5
S'500.0'
p1126
sg85
g86
sba(iDataStore
Experiment
p1127
(dp1128
g68
(dp1129
g25
S'0.5668736'
p1130
sg24
S'0.4044676'
p1131
sg23
S'0.1082641'
p1132
sg22
S'0.4475400'
p1133
sg21
S'0.2068039'
p1134
sg20
S'0.1897509'
p1135
sg19
S'0.6640881'
p1136
sg27
S'0.6214781'
p1137
sg26
S'0.6426656'
p1138
sg28
S'0.5714713'
p1139
ssg80
g81
sg82
g83
sg5
S'550.0'
p1140
sg85
g86
sba(iDataStore
Experiment
p1141
(dp1142
g68
(dp1143
g25
S'0.5977940'
p1144
sg24
S'0.4860355'
p1145
sg23
S'0.1010354'
p1146
sg22
S'0.5663255'
p1147
sg21
S'0.3196045'
p1148
sg20
S'0.1523764'
p1149
sg19
S'0.6374970'
p1150
sg27
S'0.6409856'
p1151
sg26
S'0.7231546'
p1152
sg28
S'0.6966782'
p1153
ssg80
g81
sg82
g83
sg5
S'600.0'
p1154
sg85
g86
sba(iDataStore
Experiment
p1155
(dp1156
g68
(dp1157
g25
S'0.6950467'
p1158
sg24
S'0.4614339'
p1159
sg23
S'0.1013164'
p1160
sg22
S'0.6595041'
p1161
sg21
S'0.4068650'
p1162
sg20
S'0.1338911'
p1163
sg19
S'0.7156959'
p1164
sg27
S'0.6558541'
p1165
sg26
S'0.7188045'
p1166
sg28
S'0.7758014'
p1167
ssg80
g81
sg82
g83
sg5
S'650.0'
p1168
sg85
g86
sba(iDataStore
Experiment
p1169
(dp1170
g68
(dp1171
g25
S'0.5087046'
p1172
sg24
S'0.3561251'
p1173
sg23
S'0.1462886'
p1174
sg22
S'0.6690486'
p1175
sg21
S'0.4325222'
p1176
sg20
S'0.1458993'
p1177
sg19
S'0.6367377'
p1178
sg27
S'0.7491581'
p1179
sg26
S'0.6382091'
p1180
sg28
S'0.7329435'
p1181
ssg80
g81
sg82
g83
sg5
S'700.0'
p1182
sg85
g86
sba(iDataStore
Experiment
p1183
(dp1184
g68
(dp1185
g25
S'0.4667717'
p1186
sg24
S'0.3473546'
p1187
sg23
S'0.1460243'
p1188
sg22
S'0.5726726'
p1189
sg21
S'0.4342745'
p1190
sg20
S'0.1471605'
p1191
sg19
S'0.6861329'
p1192
sg27
S'0.7790399'
p1193
sg26
S'0.6700589'
p1194
sg28
S'0.7393787'
p1195
ssg80
g81
sg82
g83
sg5
S'750.0'
p1196
sg85
g86
sba(iDataStore
Experiment
p1197
(dp1198
g68
(dp1199
g25
S'0.5446558'
p1200
sg24
S'0.2765572'
p1201
sg23
S'0.1294852'
p1202
sg22
S'0.7432860'
p1203
sg21
S'0.4384850'
p1204
sg20
S'0.1238498'
p1205
sg19
S'0.7440202'
p1206
sg27
S'0.6396986'
p1207
sg26
S'0.7585209'
p1208
sg28
S'0.6684210'
p1209
ssg80
g81
sg82
g83
sg5
S'800.0'
p1210
sg85
g86
sba(iDataStore
Experiment
p1211
(dp1212
g68
(dp1213
g25
S'0.4650374'
p1214
sg24
S'0.3447260'
p1215
sg23
S'0.0999712'
p1216
sg22
S'0.5678651'
p1217
sg21
S'0.4268514'
p1218
sg20
S'0.0662469'
p1219
sg19
S'0.8967149'
p1220
sg27
S'0.6389196'
p1221
sg26
S'0.7023964'
p1222
sg28
S'0.6975826'
p1223
ssg80
g81
sg82
g83
sg5
S'850.0'
p1224
sg85
g86
sba(iDataStore
Experiment
p1225
(dp1226
g68
(dp1227
g25
S'0.4798852'
p1228
sg24
S'0.3897331'
p1229
sg23
S'0.1245277'
p1230
sg22
S'0.6886540'
p1231
sg21
S'0.4127351'
p1232
sg20
S'0.0664624'
p1233
sg19
S'0.7564360'
p1234
sg27
S'0.7970938'
p1235
sg26
S'0.6957703'
p1236
sg28
S'0.6599207'
p1237
ssg80
g81
sg82
g83
sg5
S'900.0'
p1238
sg85
g86
sba(iDataStore
Experiment
p1239
(dp1240
g68
(dp1241
g25
S'0.4785983'
p1242
sg24
S'0.2650917'
p1243
sg23
S'0.0947804'
p1244
sg22
S'0.5188151'
p1245
sg21
S'0.3728141'
p1246
sg20
S'0.0715481'
p1247
sg19
S'0.6792970'
p1248
sg27
S'0.5806831'
p1249
sg26
S'0.7806962'
p1250
sg28
S'0.7913360'
p1251
ssg80
g81
sg82
g83
sg5
S'950.0'
p1252
sg85
g86
sba(iDataStore
Experiment
p1253
(dp1254
g68
(dp1255
g25
S'0.3951515'
p1256
sg24
S'0.3540091'
p1257
sg23
S'0.1239435'
p1258
sg22
S'0.8028182'
p1259
sg21
S'0.3585051'
p1260
sg20
S'0.0930319'
p1261
sg19
S'0.6020569'
p1262
sg27
S'0.7304382'
p1263
sg26
S'0.7849719'
p1264
sg28
S'0.6863379'
p1265
ssg80
g81
sg82
g83
sg5
S'1000.0'
p1266
sg85
g86
sbasg80
g81
sg367
Nsg17
(lp1267
g19
ag20
ag21
ag22
ag23
ag24
ag25
ag26
ag27
ag28
asg60
(lp1268
g86
asbasb.