((lp0
(iJobManager
Job
p1
(dp2
S'status'
p3
S'Finished.'
p4
sS'alg'
p5
(iconvex_optimization
ConvexOptimization
p6
(dp7
S'raw_network'
p8
(lp9
(lp10
F-0.0
aF0.004762020882182583
aF0.0031528291837048528
aF0.0026722936372749473
aF-0.013493895595075855
aF0.0033433646290887964
aF0.0024794209163445657
aF0.0034057742398658775
aF0.002593787847047224
aF0.0023611543035571003
aa(lp11
F0.0020501597212785327
aF-0.0011284224003986765
aF0.002078392568520826
aF0.0020983115826993526
aF0.002966152946356715
aF0.00205823425659446
aF0.0020954471487186765
aF0.002048004975705453
aF0.002086128726588754
aF0.002107455125837987
aa(lp12
F0.006926231651860348
aF0.002328832647890522
aF-0.0011135500559333877
aF0.0042986590470945885
aF0.010298349039203458
aF-0.0
aF-0.0
aF-0.0
aF0.001535429737188565
aF0.0010693660023548546
aa(lp13
F0.0
aF0.006988893844038557
aF0.0
aF0.0
aF-0.0
aF0.003580767678258212
aF0.002787467655835485
aF0.0031586371327705365
aF0.00326068586237227
aF0.0
aa(lp14
F0.0021835732261621388
aF0.00181912963998343
aF0.002114362215309029
aF0.0021236141771936445
aF-0.0
aF0.002096623866790992
aF0.002123930017830844
aF0.002112140615537328
aF0.0021288769882232828
aF0.0021182485979238663
aa(lp15
F0.004402647064480902
aF-0.004308482149099291
aF0.0015845334193897997
aF0.0013532859401550468
aF0.007590119084568414
aF-0.0
aF0.002154814514696568
aF0.0016621859110017567
aF0.002304283216830072
aF0.001040684630652322
aa(lp16
F0.002538786123707837
aF0.0039523510774728265
aF0.003087793820782281
aF0.0013738773684082162
aF0.003209565391884439
aF0.0014278733002015542
aF0.0015693579947679837
aF0.0010639422540634769
aF0.0016184696307703916
aF0.0025593540166681805
aa(lp17
F0.0013680656401078295
aF0.0
aF0.003248556374117584
aF0.0011587299960069686
aF0.0024232949144078475
aF0.0012952009903415274
aF0.0033087493253134426
aF0.0013842277506341816
aF0.0028326757287402415
aF0.001924796687958974
aa(lp18
F-0.0
aF0.002933816844233661
aF0.003231738205528245
aF0.0013282249905302024
aF-0.0
aF0.0028219975838510436
aF0.002717340341192198
aF0.0018525730012299846
aF0.0011516187612841122
aF0.0048191477208803235
aa(lp19
F0.0
aF0.004106845187607178
aF0.0025285138227104653
aF0.0040120462892616615
aF0.0
aF0.004117825416287246
aF0.001090762870816775
aF0.003269453094347341
aF0.0
aF0.00210424729223746
aasS'data_dir'
p20
S'/Users/jesse/Workspace/School/MastersThesis/Program/output//Convex-Opt-dream410-MCZ-ConvOpt-PositivePrior-Medium--2012-02-02_23.54.50//ConvOpt_T-0.005//data/'
p21
sS'name'
p22
S'ConvOpt_T-0.005'
p23
sS'settings'
p24
(dp25
S'inferelator'
p26
(dp27
S'datafiles'
p28
S'data/waffles.txt data/testing.txt'
p29
sS'config'
p30
S'config/tlclr_testing.cfg'
p31
ssS'genie3'
p32
(dp33
S'config'
p34
S'config/genie3_testing.cfg'
p35
ssS'inferelator-pipeline'
p36
(dp37
S'config'
p38
S'config/inferelator-pipeline.cfg'
p39
ssS'cmonkey'
p40
(dp41
S'config'
p42
S'config/cmonkey_testing.cfg'
p43
ssS'tlclr'
p44
(dp45
S'config'
p46
S'config/tlclr_testing.cfg'
p47
ssS'global'
p48
(dp49
S'medium2_network_goldnet_file'
p50
S'datasets/20Gene_Network2/Ecoli-20Genes-6Reg-3_goldstandard.tsv'
p51
sS'dream410_3_network_wildtype_file'
p52
S'datasets/DREAM4_InSilico_Size10/insilico_size10_3/insilico_size10_3_wildtype.tsv'
p53
sS'dream4100_5_network_knockdown_file'
p54
S'datasets/DREAM4_InSilico_Size100/insilico_size100_5/insilico_size100_5_knockdowns.tsv'
p55
sS'dream410_network_wildtype_file'
p56
S'datasets/DREAM4_InSilico_Size10/insilico_size10_1/insilico_size10_1_wildtype.tsv'
p57
sS'medium2_network_delta_t'
p58
I50
sS'dream4100_2_network_timeseries_file'
p59
S'datasets/DREAM4_InSilico_Size100/insilico_size100_2/insilico_size100_2_timeseries.tsv'
p60
sS'medium_network_wildtype_file'
p61
S'datasets/20Gene_Network/Ecoli-20Genes-6Reg-2_wildtype.tsv'
p62
sS'dream4100_network_goldnet_file'
p63
S'datasets/DREAM4_InSilico_Size100/insilico_size100_1/DREAM4_GoldStandard_InSilico_Size100_1.tsv'
p64
sS'dream4100_4_network_multifactorial_file'
p65
S'datasets/DREAM4_InSilico_Size100/insilico_size100_4/insilico_size100_4_multifactorial.tsv'
p66
sS'large_network_knockout_file'
p67
S'datasets/Large_Network/Ecoli-1_knockouts.tsv'
p68
sS'ecoli400_timeseries_file'
p69
S'datasets/Ecoli-400/Ecoli-400-1_dream4_timeseries.tsv'
p70
sS'small_network_multifactorial_file'
p71
S'datasets/Small_Network/Ecoli-1_multifactorial.tsv'
p72
sS'dream410_4_network_knockdown_file'
p73
S'datasets/DREAM4_InSilico_Size10/insilico_size10_4/insilico_size10_4_knockdowns.tsv'
p74
sS'dream410_5_network_wildtype_file'
p75
S'datasets/DREAM4_InSilico_Size10/insilico_size10_5/insilico_size10_5_wildtype.tsv'
p76
sS'dream4100_network_delta_t'
p77
I50
sS'dream4100_1000tp_network_knockout_file'
p78
S'datasets/DREAM4_100_1000TP/insilico_size100_1_knockouts.tsv'
p79
sS'tflist'
p80
S'ArabGeneTFNames.csv'
p81
sS'large_network_knockdown_file'
p82
S'datasets/Large_Network/Ecoli-1_knockdowns.tsv'
p83
sS'dream410_4_network_wildtype_file'
p84
S'datasets/DREAM4_InSilico_Size10/insilico_size10_4/insilico_size10_4_wildtype.tsv'
p85
sS'medium_network_multifactorial_file'
p86
S'datasets/20Gene_Network/Ecoli-20Genes-6Reg-2_multifactorial.tsv'
p87
sS'dream410_5_network_knockdown_file'
p88
S'datasets/DREAM4_InSilico_Size10/insilico_size10_5/insilico_size10_5_knockdowns.tsv'
p89
sS'dream410_5_network_goldnet_file'
p90
S'datasets/DREAM4_InSilico_Size10/insilico_size10_5/DREAM4_GoldStandard_InSilico_Size10_5.tsv'
p91
sS'dream410_2_network_knockdown_file'
p92
S'datasets/DREAM4_InSilico_Size10/insilico_size10_2/insilico_size10_2_knockdowns.tsv'
p93
sS'template_dir'
p94
S'config/templates/'
p95
sS'dream4100_1000tp_network_delta_t'
p96
I50
sS'dream4100_2_network_goldnet_file'
p97
S'datasets/DREAM4_InSilico_Size100/insilico_size100_2/DREAM4_GoldStandard_InSilico_Size100_2.tsv'
p98
sS'experiment_name'
p99
S'Convex-Opt-dream410'
p100
sS'dream410_4_network_multifactorial_file'
p101
S'datasets/DREAM4_InSilico_Size10/insilico_size10_4/insilico_size10_4_multifactorial.tsv'
p102
sS'dream410_network_timeseries_file'
p103
S'datasets/DREAM4_InSilico_Size10/insilico_size10_1/insilico_size10_1_timeseries.tsv'
p104
sS'dream410_1000tp_network_wildtype_file'
p105
S'datasets/DREAM4_10_1000TP/insilico_size10_1_wildtype.tsv'
p106
sS'dream4100_1000tp_network_goldnet_file'
p107
S'datasets/DREAM4_InSilico_Size100/insilico_size100_1/DREAM4_GoldStandard_InSilico_Size100_1.tsv'
p108
sS'dream4100_network_knockdown_file'
p109
S'datasets/DREAM4_InSilico_Size100/insilico_size100_1/insilico_size100_1_knockdowns.tsv'
p110
sS'dream4100_network_wildtype_file'
p111
S'datasets/DREAM4_InSilico_Size100/insilico_size100_1/insilico_size100_1_wildtype.tsv'
p112
sS'dream4100_3_network_multifactorial_file'
p113
S'datasets/DREAM4_InSilico_Size100/insilico_size100_3/insilico_size100_3_multifactorial.tsv'
p114
sS'n_processors'
p115
I3
sS'dream4100_3_network_knockdown_file'
p116
S'datasets/DREAM4_InSilico_Size100/insilico_size100_3/insilico_size100_3_knockdowns.tsv'
p117
sS'medium2_network_timeseries_file'
p118
S'datasets/20Gene_Network2/Ecoli-20Genes-6Reg-3_dream4_timeseries.tsv'
p119
sS'dream410_4_network_delta_t'
p120
I50
sS'dream4100_5_network_delta_t'
p121
I50
sS'dream4100_5_network_multifactorial_file'
p122
S'datasets/DREAM4_InSilico_Size100/insilico_size100_5/insilico_size100_5_multifactorial.tsv'
p123
sS'dream410_1000tp_network_knockdown_file'
p124
S'datasets/DREAM4_10_1000TP/insilico_size10_1_knockdowns.tsv'
p125
sS'dream4100_network_knockout_file'
p126
S'datasets/DREAM4_InSilico_Size100/insilico_size100_1/insilico_size100_1_knockouts.tsv'
p127
sS'log_dir'
p128
S'output/logs/'
p129
sS'dream4100_4_network_wildtype_file'
p130
S'datasets/DREAM4_InSilico_Size100/insilico_size100_4/insilico_size100_4_wildtype.tsv'
p131
sS'dream4100_4_network_timeseries_file'
p132
S'datasets/DREAM4_InSilico_Size100/insilico_size100_4/insilico_size100_4_timeseries.tsv'
p133
sS'steady_state_files'
p134
S'550ath.ratios.fix'
p135
sS'medium_network_delta_t'
p136
I50
sS'ecoli400_wildtype_file'
p137
S'datasets/Ecoli-400/Ecoli-400-1_wildtype.tsv'
p138
sS'dream410_network_goldnet_file'
p139
S'datasets/DREAM4_InSilico_Size10/insilico_size10_1/DREAM4_GoldStandard_InSilico_Size10_1.tsv'
p140
sS'dream410_4_network_timeseries_file'
p141
S'datasets/DREAM4_InSilico_Size10/insilico_size10_4/insilico_size10_4_timeseries.tsv'
p142
sS'dream4100_3_network_timeseries_file'
p143
S'datasets/DREAM4_InSilico_Size100/insilico_size100_3/insilico_size100_3_timeseries.tsv'
p144
sS'large_network_delta_t'
p145
I30
sS'dream410_1000tp_network_knockout_file'
p146
S'datasets/DREAM4_10_1000TP/insilico_size10_1_knockouts.tsv'
p147
sS'medium2_network_wildtype_file'
p148
S'datasets/20Gene_Network2/Ecoli-20Genes-6Reg-3_wildtype.tsv'
p149
sS'dream4100_5_network_timeseries_file'
p150
S'datasets/DREAM4_InSilico_Size100/insilico_size100_5/insilico_size100_5_timeseries.tsv'
p151
sS'ecoli400_goldnet_file'
p152
S'datasets/Ecoli-400/Ecoli-400-1_goldstandard.tsv'
p153
sS'dream4100_network_multifactorial_file'
p154
S'datasets/DREAM4_InSilico_Size100/insilico_size100_1/insilico_size100_1_multifactorial.tsv'
p155
sS'dream410_2_network_wildtype_file'
p156
S'datasets/DREAM4_InSilico_Size10/insilico_size10_2/insilico_size10_2_wildtype.tsv'
p157
sS'dream410_5_network_timeseries_file'
p158
S'datasets/DREAM4_InSilico_Size10/insilico_size10_5/insilico_size10_5_timeseries.tsv'
p159
sS'small_network_knockdown_file'
p160
S'datasets/Small_Network/Ecoli-1_knockdowns.tsv'
p161
sS'dream410_network_knockout_file'
p162
S'datasets/DREAM4_InSilico_Size10/insilico_size10_1/insilico_size10_1_knockouts.tsv'
p163
sS'dream410_3_network_goldnet_file'
p164
S'datasets/DREAM4_InSilico_Size10/insilico_size10_3/DREAM4_GoldStandard_InSilico_Size10_3.tsv'
p165
sS'medium_network_knockdown_file'
p166
S'datasets/20Gene_Network/Ecoli-20Genes-6Reg-2_knockdowns.tsv'
p167
sS'dream410_4_network_knockout_file'
p168
S'datasets/DREAM4_InSilico_Size10/insilico_size10_4/insilico_size10_4_knockouts.tsv'
p169
sS'dream4100_2_network_wildtype_file'
p170
S'datasets/DREAM4_InSilico_Size100/insilico_size100_2/insilico_size100_2_wildtype.tsv'
p171
sS'dream410_1000tp_network_timeseries_file'
p172
S'datasets/DREAM4_10_1000TP/insilico_size10_1_timeseries.tsv'
p173
sS'dream410_network_delta_t'
p174
I50
sS'ecoli400_knockout_file'
p175
S'datasets/Ecoli-400/Ecoli-400-1_knockouts.tsv'
p176
sS'dream4100_3_network_knockout_file'
p177
S'datasets/DREAM4_InSilico_Size100/insilico_size100_3/insilico_size100_3_knockouts.tsv'
p178
sS'dream4100_1000tp_network_multifactorial_file'
p179
S'datasets/DREAM4_100_1000TP/insilico_size100_1_multifactorial.tsv'
p180
sS'dream410_2_network_goldnet_file'
p181
S'datasets/DREAM4_InSilico_Size10/insilico_size10_2/DREAM4_GoldStandard_InSilico_Size10_2.tsv'
p182
sS'small_network_wildtype_file'
p183
S'datasets/Small_Network/Ecoli-1_wildtype.tsv'
p184
sS'dream4100_2_network_delta_t'
p185
I50
sS'medium_network_timeseries_file'
p186
S'datasets/20Gene_Network/Ecoli-20Genes-6Reg-2_dream4_timeseries.tsv'
p187
sS'dream410_5_network_knockout_file'
p188
S'datasets/DREAM4_InSilico_Size10/insilico_size10_5/insilico_size10_5_knockouts.tsv'
p189
sS'dream410_2_network_knockout_file'
p190
S'datasets/DREAM4_InSilico_Size10/insilico_size10_2/insilico_size10_2_knockouts.tsv'
p191
sS'dream410_2_network_timeseries_file'
p192
S'datasets/DREAM4_InSilico_Size10/insilico_size10_2/insilico_size10_2_timeseries.tsv'
p193
sS'dream4100_3_network_delta_t'
p194
I50
sS'use_cluster'
p195
S'False'
p196
sS'large_network_timeseries_file'
p197
S'datasets/Large_Network/Ecoli-1_dream4_timeseries.tsv'
p198
sS'dream410_3_network_knockdown_file'
p199
S'datasets/DREAM4_InSilico_Size10/insilico_size10_3/insilico_size10_3_knockdowns.tsv'
p200
sS'dream410_2_network_delta_t'
p201
I50
sS'medium2_network_knockout_file'
p202
S'datasets/20Gene_Network2/Ecoli-20Genes-6Reg-3_knockouts.tsv'
p203
sS'dream4100_3_network_wildtype_file'
p204
S'datasets/DREAM4_InSilico_Size100/insilico_size100_3/insilico_size100_3_wildtype.tsv'
p205
sS'dream410_3_network_timeseries_file'
p206
S'datasets/DREAM4_InSilico_Size10/insilico_size10_3/insilico_size10_3_timeseries.tsv'
p207
sS'small_network_goldnet_file'
p208
S'datasets/Small_Network/Ecoli-1_goldstandard.tsv'
p209
sS'small_network_delta_t'
p210
I30
sS'dream4100_5_network_wildtype_file'
p211
S'datasets/DREAM4_InSilico_Size100/insilico_size100_5/insilico_size100_5_wildtype.tsv'
p212
sS'dream410_3_network_knockout_file'
p213
S'datasets/DREAM4_InSilico_Size10/insilico_size10_3/insilico_size10_3_knockouts.tsv'
p214
sS'dream410_network_knockdown_file'
p215
S'datasets/DREAM4_InSilico_Size10/insilico_size10_1/insilico_size10_1_knockdowns.tsv'
p216
sS'dream410_3_network_delta_t'
p217
I50
sS'dream4100_network_timeseries_file'
p218
S'datasets/DREAM4_InSilico_Size100/insilico_size100_1/insilico_size100_1_timeseries.tsv'
p219
sS'dream4100_1000tp_network_wildtype_file'
p220
S'datasets/DREAM4_100_1000TP/insilico_size100_1_wildtype.tsv'
p221
sS'dream410_1000tp_network_goldnet_file'
p222
S'datasets/DREAM4_InSilico_Size10/insilico_size10_1/DREAM4_GoldStandard_InSilico_Size10_1.tsv'
p223
sS'large_network_multifactorial_file'
p224
S'datasets/Large_Network/Ecoli-1_multifactorial.tsv'
p225
sS'dream4100_1000tp_network_knockdown_file'
p226
S'datasets/DREAM4_100_1000TP/insilico_size100_1_knockdowns.tsv'
p227
sS'large_network_wildtype_file'
p228
S'datasets/Large_Network/Ecoli-1_wildtype.tsv'
p229
sS'ecoli400_multifactorial_file'
p230
S'datasets/Ecoli-400/Ecoli-400-1_multifactorial.tsv'
p231
sS'dream410_network_multifactorial_file'
p232
S'datasets/DREAM4_InSilico_Size10/insilico_size10_1/insilico_size10_1_multifactorial.tsv'
p233
sS'small_network_knockout_file'
p234
S'datasets/Small_Network/Ecoli-1_knockouts.tsv'
p235
sS'dream4100_4_network_knockout_file'
p236
S'datasets/DREAM4_InSilico_Size100/insilico_size100_4/insilico_size100_4_knockouts.tsv'
p237
sS'matlab_path'
p238
S'matlab'
p239
sS'dream410_4_network_goldnet_file'
p240
S'datasets/DREAM4_InSilico_Size10/insilico_size10_4/DREAM4_GoldStandard_InSilico_Size10_4.tsv'
p241
sS'dream4100_2_network_multifactorial_file'
p242
S'datasets/DREAM4_InSilico_Size100/insilico_size100_2/insilico_size100_2_multifactorial.tsv'
p243
sS'ecoli400_knockdown_file'
p244
S'datasets/Ecoli-400/Ecoli-400-1_knockdowns.tsv'
p245
sS'dream4100_3_network_goldnet_file'
p246
S'datasets/DREAM4_InSilico_Size100/insilico_size100_3/DREAM4_GoldStandard_InSilico_Size100_3.tsv'
p247
sS'time_series_delta_t'
p248
I50
sS'dream4100_1000tp_network_timeseries_file'
p249
S'datasets/DREAM4_100_1000TP/insilico_size100_1_timeseries.tsv'
p250
sS'medium_network_goldnet_file'
p251
S'datasets/20Gene_Network/Ecoli-20Genes-6Reg-2_goldstandard.tsv'
p252
sS'dream4100_4_network_goldnet_file'
p253
S'datasets/DREAM4_InSilico_Size100/insilico_size100_4/DREAM4_GoldStandard_InSilico_Size100_4.tsv'
p254
sS'large_network_goldnet_file'
p255
S'datasets/Large_Network/Ecoli-1_goldstandard.tsv'
p256
sS'working_dir'
p257
S'/Users/jesse/Workspace/School/MastersThesis/Program/'
p258
sS'output_dir'
p259
S'output//Convex-Opt-dream410-MCZ-ConvOpt-PositivePrior-Medium--2012-02-02_23.54.50/'
p260
sS'medium2_network_knockdown_file'
p261
S'datasets/20Gene_Network2/Ecoli-20Genes-6Reg-3_knockdowns.tsv'
p262
sS'time_series_files'
p263
S'datasets/dream4_10/dream4_ts.tsv'
p264
sS'dream4100_5_network_knockout_file'
p265
S'datasets/DREAM4_InSilico_Size100/insilico_size100_5/insilico_size100_5_knockouts.tsv'
p266
sS'dream410_3_network_multifactorial_file'
p267
S'datasets/DREAM4_InSilico_Size10/insilico_size10_3/insilico_size10_3_multifactorial.tsv'
p268
sS'dream4100_2_network_knockout_file'
p269
S'datasets/DREAM4_InSilico_Size100/insilico_size100_2/insilico_size100_2_knockouts.tsv'
p270
sS'dream410_1000tp_network_multifactorial_file'
p271
S'datasets/DREAM4_10_1000TP/insilico_size10_1_multifactorial.tsv'
p272
sS'dream410_5_network_delta_t'
p273
I50
sS'dream4100_5_network_goldnet_file'
p274
S'datasets/DREAM4_InSilico_Size100/insilico_size100_5/DREAM4_GoldStandard_InSilico_Size100_5.tsv'
p275
sS'small_network_timeseries_file'
p276
S'datasets/Small_Network/Ecoli-1_dream4_timeseries.tsv'
p277
sS'dream410_2_network_multifactorial_file'
p278
S'datasets/DREAM4_InSilico_Size10/insilico_size10_2/insilico_size10_2_multifactorial.tsv'
p279
sS'dream4100_4_network_knockdown_file'
p280
S'datasets/DREAM4_InSilico_Size100/insilico_size100_4/insilico_size100_4_knockdowns.tsv'
p281
sS'medium_network_knockout_file'
p282
S'datasets/20Gene_Network/Ecoli-20Genes-6Reg-2_knockouts.tsv'
p283
sS'ecoli400_delta_t'
p284
I50
sS'medium2_network_multifactorial_file'
p285
S'datasets/20Gene_Network2/Ecoli-20Genes-6Reg-3_multifactorial.tsv'
p286
sS'dream4100_2_network_knockdown_file'
p287
S'datasets/DREAM4_InSilico_Size100/insilico_size100_2/insilico_size100_2_knockdowns.tsv'
p288
sS'dream4100_4_network_delta_t'
p289
I50
sS'dream410_1000tp_network_delta_t'
p290
I50
sS'dream410_5_network_multifactorial_file'
p291
S'datasets/DREAM4_InSilico_Size10/insilico_size10_5/insilico_size10_5_multifactorial.tsv'
p292
ssS'nir'
p293
(dp294
S'config'
p295
S'config/nir_testing.cfg'
p296
ssS'mcz'
p297
(dp298
S'config'
p299
S'config/mcz_testing.cfg'
p300
ssS'convex_optimization'
p301
(dp302
S'file_ext'
p303
S'm'
p304
sS'init_mat_file'
p305
S''
p306
sg20
S'/Users/jesse/Workspace/School/MastersThesis/Program/output//Convex-Opt-dream410-MCZ-ConvOpt-PositivePrior-Medium--2012-02-02_23.54.50//ConvOpt_T-0.09//data/'
p307
sg22
S'ConvOpt_T-0.09'
p308
sS'knockout'
p309
S'/Users/jesse/Workspace/School/MastersThesis/Program/output//Convex-Opt-dream410-MCZ-ConvOpt-PositivePrior-Medium--2012-02-02_23.54.50//ConvOpt_T-0.09//data//insilico_size10_1_knockouts.tsv'
p310
sS'param_t'
p311
F0.09
sS'edge_cutoff'
p312
F0.75
sS'settings_file'
p313
S'/Users/jesse/Workspace/School/MastersThesis/Program/output//Convex-Opt-dream410-MCZ-ConvOpt-PositivePrior-Medium--2012-02-02_23.54.50//ConvOpt_T-0.09//convex_optimization_settings.m'
p314
sS'output_dir'
p315
S'/Users/jesse/Workspace/School/MastersThesis/Program/output//Convex-Opt-dream410-MCZ-ConvOpt-PositivePrior-Medium--2012-02-02_23.54.50//ConvOpt_T-0.09/'
p316
sS'working_dir_config'
p317
S'/Users/jesse/Workspace/School/MastersThesis/Program/output//Convex-Opt-dream410-MCZ-ConvOpt-PositivePrior-Medium--2012-02-02_23.54.50//ConvOpt_T-0.09//convex_optimization_program/run_convex_optimization.m'
p318
sS'unassigned_prior_value'
p319
I10
sS'path'
p320
S'algorithms/convex_optimization/'
p321
sS'ratio_files'
p322
S'/Users/jesse/Workspace/School/MastersThesis/Program/output//Convex-Opt-dream410-MCZ-ConvOpt-PositivePrior-Medium--2012-02-02_23.54.50//ConvOpt_T-0.09//data//insilico_size10_1_knockouts.tsv'
p323
sS'prior_file'
p324
g306
sS'ratio_file'
p325
S'ratios.csv'
p326
sS'mat_ratio_file'
p327
S'ratios.mat'
p328
sS'log_dir'
p329
S'/Users/jesse/Workspace/School/MastersThesis/Program/output//Convex-Opt-dream410-MCZ-ConvOpt-PositivePrior-Medium--2012-02-02_23.54.50//ConvOpt_T-0.09//log/'
p330
ssS'banjo'
p331
(dp332
S'num_genes'
p333
I10
sS'config'
p334
S'config/banjo_testing.cfg'
p335
ssS'dfg4grn'
p336
(dp337
S'cluster_expname'
p338
S'testing'
p339
sS'tau'
p340
I10
sS'lambda_w'
p341
I2
sS'cluster_procs'
p342
I1
sS'tau_range'
p343
(lp344
I1
aI3
asS'cluster_email'
p345
S'jml654@nyu.edu'
p346
sS'eta_z'
p347
I3
sS'eta_z_range'
p348
(lp349
F0.0001
aF0.1
asS'lambda_w_range'
p350
(lp351
F0.001
aF0.2
asS'cluster_priority'
p352
I1
sS'cluster_nodes'
p353
I1
sS'path'
p354
S'algorithms/dfg4grn/'
p355
sS'config'
p356
S'config/dfg4grn_testing.cfg'
p357
sS'cluster_username'
p358
S'jml654'
p359
ssS'clr'
p360
(dp361
S'config'
p362
S'config/clr_testing.cfg'
p363
ssS'nirest'
p364
(dp365
S'ratio_files'
p366
S'datasets/dream4_10/dream4_ts.tsv'
p367
sS'config'
p368
S'config/nirest_testing.cfg'
p369
sssS'cmd'
p370
S'matlab -nodesktop -nodisplay -nosplash -r "addpath(genpath(\'./\'));try;run_convex_optimization, catch err, err, end, exit"'
p371
sS'alg_name'
p372
S'convex_optimization'
p373
sS'prior'
p374
Nsg257
S'/Users/jesse/Workspace/School/MastersThesis/Program/output//Convex-Opt-dream410-MCZ-ConvOpt-PositivePrior-Medium--2012-02-02_23.54.50//ConvOpt_T-0.005//convex_optimization_program/'
p375
sg315
S'/Users/jesse/Workspace/School/MastersThesis/Program/output//Convex-Opt-dream410-MCZ-ConvOpt-PositivePrior-Medium--2012-02-02_23.54.50//ConvOpt_T-0.005/'
p376
sS'network'
p377
(iNetwork
Network
p378
(dp379
S'binary'
p380
I00
sg377
(dp381
S'G7'
p382
(dp383
g382
F0.0015693579947679837
sS'G6'
p384
F0.0014278733002015542
sS'G5'
p385
F0.003209565391884439
sS'G4'
p386
F0.0013738773684082162
sS'G3'
p387
F0.003087793820782281
sS'G2'
p388
F0.0039523510774728265
sS'G1'
p389
F0.002538786123707837
sS'G9'
p390
F0.0016184696307703916
sS'G8'
p391
F0.0010639422540634769
sS'G10'
p392
F0.0025593540166681805
ssg384
(dp393
g382
F0.002154814514696568
sg384
F0.0
sg385
F0.007590119084568414
sg386
F0.0013532859401550468
sg387
F0.0015845334193897997
sg388
F0.004308482149099291
sg389
F0.004402647064480902
sg390
F0.002304283216830072
sg391
F0.0016621859110017567
sg392
F0.001040684630652322
ssg385
(dp394
g382
F0.002123930017830844
sg384
F0.002096623866790992
sg385
F0.0
sg386
F0.0021236141771936445
sg387
F0.002114362215309029
sg388
F0.00181912963998343
sg389
F0.0021835732261621388
sg390
F0.0021288769882232828
sg391
F0.002112140615537328
sg392
F0.0021182485979238663
ssg386
(dp395
g382
F0.002787467655835485
sg384
F0.003580767678258212
sg385
F0.0
sg386
F0.0
sg387
F0.0
sg388
F0.006988893844038557
sg389
F0.0
sg390
F0.00326068586237227
sg391
F0.0031586371327705365
sg392
F0.0
ssg387
(dp396
g382
F0.0
sg384
F0.0
sg385
F0.010298349039203458
sg386
F0.0042986590470945885
sg387
F0.0011135500559333877
sg388
F0.002328832647890522
sg389
F0.006926231651860348
sg390
F0.001535429737188565
sg391
F0.0
sg392
F0.0010693660023548546
ssg388
(dp397
g382
F0.0020954471487186765
sg384
F0.00205823425659446
sg385
F0.002966152946356715
sg386
F0.0020983115826993526
sg387
F0.002078392568520826
sg388
F0.0011284224003986765
sg389
F0.0020501597212785327
sg390
F0.002086128726588754
sg391
F0.002048004975705453
sg392
F0.002107455125837987
ssg389
(dp398
g382
F0.0024794209163445657
sg384
F0.0033433646290887964
sg385
F0.013493895595075855
sg386
F0.0026722936372749473
sg387
F0.0031528291837048528
sg388
F0.004762020882182583
sg389
F0.0
sg390
F0.002593787847047224
sg391
F0.0034057742398658775
sg392
F0.0023611543035571003
ssg390
(dp399
g382
F0.002717340341192198
sg384
F0.0028219975838510436
sg385
F0.0
sg386
F0.0013282249905302024
sg387
F0.003231738205528245
sg388
F0.002933816844233661
sg389
F0.0
sg390
F0.0011516187612841122
sg391
F0.0018525730012299846
sg392
F0.0048191477208803235
ssg391
(dp400
g382
F0.0033087493253134426
sg384
F0.0012952009903415274
sg385
F0.0024232949144078475
sg386
F0.0011587299960069686
sg387
F0.003248556374117584
sg388
F0.0
sg389
F0.0013680656401078295
sg390
F0.0028326757287402415
sg391
F0.0013842277506341816
sg392
F0.001924796687958974
ssg392
(dp401
g382
F0.001090762870816775
sg384
F0.004117825416287246
sg385
F0.0
sg386
F0.0040120462892616615
sg387
F0.0025285138227104653
sg388
F0.004106845187607178
sg389
F0.0
sg390
F0.0
sg391
F0.003269453094347341
sg392
F0.00210424729223746
sssS'cutoff'
p402
I0
sS'signed'
p403
I00
sS'original_network'
p404
g9
sS'thresh'
p405
I0
sS'gene_list'
p406
(lp407
g389
ag388
ag387
ag386
ag385
ag384
ag382
ag391
ag390
ag392
asbsS'datatypes'
p408
(lp409
S'overexpression'
p410
ag309
aS'multifactorial'
p411
aS'knockdown'
p412
asg406
g407
sS'cwd'
p413
g375
sS'data_storage'
p414
(iDataStore
MicroarrayData
p415
(dp416
S'experiments'
p417
(lp418
(iDataStore
Experiment
p419
(dp420
S'ratios'
p421
(dp422
g382
S'0.8300751'
p423
sg384
S'0.3751750'
p424
sg385
S'0.8043362'
p425
sg386
S'0.3623740'
p426
sg387
S'0.2643345'
p427
sg388
S'0.3726836'
p428
sg389
S'0.0000000'
p429
sg390
S'0.6211513'
p430
sg391
S'0.7745205'
p431
sg392
S'0.7196954'
p432
ssS'type'
p433
g309
sS'tfs'
p434
(lp435
sg22
S'0'
p436
sS'file'
p437
g163
sba(iDataStore
Experiment
p438
(dp439
g421
(dp440
g382
S'0.5208251'
p441
sg384
S'0.3396784'
p442
sg385
S'0.1510230'
p443
sg386
S'0.6002870'
p444
sg387
S'0.3771581'
p445
sg388
S'0.0000000'
p446
sg389
S'0.7331094'
p447
sg390
S'0.7350115'
p448
sg391
S'0.6787224'
p449
sg392
S'0.7922641'
p450
ssg433
g309
sg434
g435
sg22
S'1'
p451
sg437
g163
sba(iDataStore
Experiment
p452
(dp453
g421
(dp454
g382
S'0.6641803'
p455
sg384
S'0.4025691'
p456
sg385
S'0.0791767'
p457
sg386
S'0.3730533'
p458
sg387
S'0.0000000'
p459
sg388
S'0.1391272'
p460
sg389
S'0.7070529'
p461
sg390
S'0.7220312'
p462
sg391
S'0.8045297'
p463
sg392
S'0.6658928'
p464
ssg433
g309
sg434
g435
sg22
S'2'
p465
sg437
g163
sba(iDataStore
Experiment
p466
(dp467
g421
(dp468
g382
S'0.1099868'
p469
sg384
S'0.2836348'
p470
sg385
S'0.1489169'
p471
sg386
S'0.0000000'
p472
sg387
S'0.6167796'
p473
sg388
S'0.1071007'
p474
sg389
S'0.8450825'
p475
sg390
S'0.5874284'
p476
sg391
S'0.6342242'
p477
sg392
S'0.7160394'
p478
ssg433
g309
sg434
g435
sg22
S'3'
p479
sg437
g163
sba(iDataStore
Experiment
p480
(dp481
g421
(dp482
g382
S'0.5416993'
p483
sg384
S'0.3271487'
p484
sg385
S'0.0000000'
p485
sg386
S'0.5616994'
p486
sg387
S'0.4261411'
p487
sg388
S'0.1364529'
p488
sg389
S'0.8780137'
p489
sg390
S'0.7343038'
p490
sg391
S'0.5681723'
p491
sg392
S'0.7933364'
p492
ssg433
g309
sg434
g435
sg22
S'4'
p493
sg437
g163
sba(iDataStore
Experiment
p494
(dp495
g421
(dp496
g382
S'0.4606635'
p497
sg384
S'0.0000000'
p498
sg385
S'0.0947163'
p499
sg386
S'0.6272800'
p500
sg387
S'0.4614097'
p501
sg388
S'0.3975987'
p502
sg389
S'0.6164494'
p503
sg390
S'0.7374282'
p504
sg391
S'0.5924707'
p505
sg392
S'0.7962721'
p506
ssg433
g309
sg434
g435
sg22
S'5'
p507
sg437
g163
sba(iDataStore
Experiment
p508
(dp509
g421
(dp510
g382
S'0.0000000'
p511
sg384
S'0.3024242'
p512
sg385
S'0.0843933'
p513
sg386
S'0.2712395'
p514
sg387
S'0.3150332'
p515
sg388
S'0.0855962'
p516
sg389
S'0.6906661'
p517
sg390
S'0.8041040'
p518
sg391
S'0.7503346'
p519
sg392
S'0.6355293'
p520
ssg433
g309
sg434
g435
sg22
S'6'
p521
sg437
g163
sba(iDataStore
Experiment
p522
(dp523
g421
(dp524
g382
S'0.5464286'
p525
sg384
S'0.6322827'
p526
sg385
S'0.1194226'
p527
sg386
S'0.6637898'
p528
sg387
S'0.3753798'
p529
sg388
S'0.2786197'
p530
sg389
S'0.7996258'
p531
sg390
S'0.7722994'
p532
sg391
S'0.0000000'
p533
sg392
S'0.6917469'
p534
ssg433
g309
sg434
g435
sg22
S'7'
p535
sg437
g163
sba(iDataStore
Experiment
p536
(dp537
g421
(dp538
g382
S'0.6929004'
p539
sg384
S'0.2983418'
p540
sg385
S'0.1357722'
p541
sg386
S'0.3983948'
p542
sg387
S'0.2351013'
p543
sg388
S'0.1223010'
p544
sg389
S'0.7928387'
p545
sg390
S'0.0000000'
p546
sg391
S'0.7674369'
p547
sg392
S'0.0362879'
p548
ssg433
g309
sg434
g435
sg22
S'8'
p549
sg437
g163
sba(iDataStore
Experiment
p550
(dp551
g421
(dp552
g382
S'0.6154742'
p553
sg384
S'0.3397100'
p554
sg385
S'0.1241278'
p555
sg386
S'0.3636434'
p556
sg387
S'0.4215866'
p557
sg388
S'0.1399857'
p558
sg389
S'0.7939821'
p559
sg390
S'0.7247379'
p560
sg391
S'0.6776090'
p561
sg392
S'0.0000000'
p562
ssg433
g309
sg434
g435
sg22
S'9'
p563
sg437
g163
sbasg433
g309
sS'timeseries_num'
p564
Nsg406
g407
sS'input_files'
p565
(lp566
S'insilico_size10_1_knockouts.tsv'
p567
asbsg329
S'/Users/jesse/Workspace/School/MastersThesis/Program/output//Convex-Opt-dream410-MCZ-ConvOpt-PositivePrior-Medium--2012-02-02_23.54.50//ConvOpt_T-0.005//log/'
p568
sbsS'id'
p569
I0
sg24
(dp570
g26
(dp571
g30
g31
sg28
g29
ssg32
(dp572
g34
g35
ssg36
(dp573
g38
g39
ssg40
(dp574
g42
g43
ssg44
(dp575
g46
g47
ssg48
(dp576
g50
g51
sg52
g53
sg54
g55
sg56
g57
sg58
I50
sg59
g60
sg61
g62
sg63
g64
sg213
g214
sg67
g68
sg69
g70
sg197
g198
sg73
g74
sg75
g76
sg77
I50
sg78
g79
sg80
g81
sg172
g173
sg218
g219
sg263
g264
sg88
g89
sg90
g91
sg92
g93
sg94
g95
sg96
I50
sg97
g98
sg99
g100
sg101
g102
sg103
g104
sg105
g106
sg107
g108
sg109
g110
sg188
g189
sg111
g112
sg115
I3
sg116
g117
sg118
g119
sg120
I50
sg121
I50
sg122
g123
sg124
g125
sg126
g127
sg128
g129
sg130
g131
sg132
g133
sg134
g135
sg136
I50
sg137
g138
sg242
g243
sg141
g142
sg143
g144
sg145
I30
sg146
g147
sg148
g149
sg150
g151
sg152
g153
sg154
g155
sg156
g157
sg158
g159
sg160
g161
sg162
g163
sg164
g165
sg166
g167
sg170
g171
sg82
g83
sg174
I50
sg175
g176
sg177
g178
sg179
g180
sg181
g182
sg183
g184
sg185
I50
sg186
g187
sg139
g140
sg190
g191
sg192
g193
sg194
I50
sg240
g241
sg195
g196
sg71
g72
sg201
I50
sg199
g200
sg202
g203
sg204
g205
sg206
g207
sg208
g209
sg84
g85
sg210
I30
sg211
g212
sg65
g66
sg215
g216
sg217
I50
sg113
g114
sg220
g221
sg222
g223
sg224
g225
sg226
g227
sg228
g229
sg230
g231
sg232
g233
sg234
g235
sg236
g237
sg238
g239
sg168
g169
sg244
g245
sg246
g247
sg248
I50
sg249
g250
sg251
g252
sg253
g254
sg255
g256
sg257
g258
sg259
g260
sg261
g262
sg86
g87
sg265
g266
sg267
g268
sg269
g270
sg271
g272
sg273
I50
sg274
g275
sg276
g277
sg290
I50
sg280
g281
sg282
g283
sg284
I50
sg285
g286
sg287
g288
sg289
I50
sg278
g279
sg291
g292
ssg301
(dp577
g322
g323
sg305
g306
sg20
g307
sg22
g308
sg309
g310
sg311
F0.09
sg327
g328
sg315
g316
sg313
g314
sg325
g326
sg319
I10
sg320
g321
sg303
g304
sg324
g306
sg317
g318
sg312
F0.75
sg329
g330
ssg297
(dp578
g299
g300
ssg293
(dp579
g295
g296
ssg331
(dp580
g333
I10
sg334
g335
ssg336
(dp581
g338
g339
sg340
I10
sg341
I2
sg353
I1
sg345
g346
sg343
(lp582
I1
aI3
asg348
(lp583
F0.0001
aF0.1
asg347
I3
sg350
(lp584
F0.001
aF0.2
asg352
I1
sg354
g355
sg342
I1
sg356
g357
sg358
g359
ssg360
(dp585
g362
g363
ssg364
(dp586
g366
g367
sg368
g369
sssba(iJobManager
Job
p587
(dp588
g3
g4
sg5
(iconvex_optimization
ConvexOptimization
p589
(dp590
g8
(lp591
(lp592
F-0.0015296665178254898
aF0.0
aF0.006773379615211184
aF0.0013204109616964388
aF-0.011668594566131674
aF0.0015487963116953551
aF0.0028185133000562246
aF0.0015119771794900316
aF0.0011109699938032236
aF0.0
aa(lp593
F0.001339025686235118
aF-0.0
aF0.0010345922430161636
aF0.0010835322772493328
aF0.0014928937553264632
aF0.0
aF0.0011026586496853952
aF0.0010618623037288444
aF0.0011762976367748479
aF0.0011273879631943373
aa(lp594
F0.001111108171087949
aF0.001486930604315262
aF-0.0
aF0.0011632574955200425
aF0.0012097787474516508
aF0.0011830370962684356
aF0.0011002415261742726
aF0.0011653592728322337
aF0.0011366642903425372
aF0.0011511606122525109
aa(lp595
F0.0
aF0.0016061413224122134
aF0.0
aF0.0
aF0.0
aF0.0010114491905426348
aF0.002894942191076666
aF0.0
aF0.0014601883594309584
aF0.0
aa(lp596
F0.0014818245923180484
aF0.0013430598680059802
aF0.0
aF0.0010844218781898007
aF0.0
aF0.0
aF0.0
aF0.0010003891431864531
aF0.0011668399673112617
aF0.0011549072031300511
aa(lp597
F0.0019230754995618327
aF-0.0
aF0.0
aF0.0010022388651123038
aF0.0022116581999540585
aF-0.0
aF0.0013827917021984604
aF0.0
aF0.0012492402303507788
aF0.0011378316867904914
aa(lp598
F0.0013163745545625716
aF0.0016600788249263587
aF0.0016237715734348512
aF0.001102257835157161
aF0.0018128757709376941
aF0.0010450351495308041
aF-0.0
aF0.001096993942297786
aF0.0011795082064622875
aF0.0011408698193378086
aa(lp599
F0.0012565844689760297
aF0.0
aF0.0014043067870375125
aF0.0010724806470534531
aF0.0017292810828308802
aF0.0
aF0.0015596575095315757
aF0.0
aF0.0013729663607193743
aF0.0012047347308055123
aa(lp600
F0.0
aF0.0014394464112399419
aF0.0018353323089570495
aF0.0010663921449491909
aF0.001115063417145734
aF0.001279274253050744
aF0.0
aF0.0
aF0.0
aF0.0018889717603656209
aa(lp601
F0.0012416007916442595
aF0.0018501087264581884
aF0.0013621689620180177
aF0.0016492741403766331
aF0.001579477327652512
aF0.0015482015337795474
aF0.0
aF0.0013338328326142346
aF0.0
aF0.0
aasg20
S'/Users/jesse/Workspace/School/MastersThesis/Program/output//Convex-Opt-dream410-MCZ-ConvOpt-PositivePrior-Medium--2012-02-02_23.54.50//ConvOpt_T-0.02//data/'
p602
sg22
S'ConvOpt_T-0.02'
p603
sg24
(dp604
g26
(dp605
g28
g29
sg30
g31
ssg32
(dp606
g34
g35
ssg36
(dp607
g38
g39
ssg40
(dp608
g42
g43
ssg44
(dp609
g46
g47
ssg48
(dp610
g50
g51
sg52
g53
sg54
g55
sg56
g57
sg58
I50
sg59
g60
sg61
g62
sg63
g64
sg65
g66
sg67
g68
sg69
g70
sg71
g72
sg73
g74
sg75
g76
sg77
I50
sg78
g79
sg80
g81
sg82
g83
sg84
g85
sg86
g87
sg88
g89
sg90
g91
sg92
g93
sg94
g95
sg96
I50
sg97
g98
sg99
g100
sg101
g102
sg103
g104
sg105
g106
sg107
g108
sg109
g110
sg111
g112
sg113
g114
sg115
I3
sg116
g117
sg118
g119
sg120
I50
sg121
I50
sg122
g123
sg124
g125
sg126
g127
sg128
g129
sg130
g131
sg132
g133
sg134
g135
sg136
I50
sg137
g138
sg139
g140
sg141
g142
sg143
g144
sg145
I30
sg146
g147
sg148
g149
sg150
g151
sg152
g153
sg154
g155
sg156
g157
sg158
g159
sg160
g161
sg162
g163
sg164
g165
sg166
g167
sg168
g169
sg170
g171
sg172
g173
sg174
I50
sg175
g176
sg177
g178
sg179
g180
sg181
g182
sg183
g184
sg185
I50
sg186
g187
sg188
g189
sg190
g191
sg192
g193
sg194
I50
sg195
g196
sg197
g198
sg199
g200
sg201
I50
sg202
g203
sg204
g205
sg206
g207
sg208
g209
sg210
I30
sg211
g212
sg213
g214
sg215
g216
sg217
I50
sg218
g219
sg220
g221
sg222
g223
sg224
g225
sg226
g227
sg228
g229
sg230
g231
sg232
g233
sg234
g235
sg236
g237
sg238
g239
sg240
g241
sg242
g243
sg244
g245
sg246
g247
sg248
I50
sg249
g250
sg251
g252
sg253
g254
sg255
g256
sg257
g258
sg259
g260
sg261
g262
sg263
g264
sg265
g266
sg267
g268
sg269
g270
sg271
g272
sg273
I50
sg274
g275
sg276
g277
sg278
g279
sg280
g281
sg282
g283
sg284
I50
sg285
g286
sg287
g288
sg289
I50
sg290
I50
sg291
g292
ssg293
(dp611
g295
g296
ssg297
(dp612
g299
g300
ssg301
(dp613
g303
g304
sg305
g306
sg20
g307
sg22
g308
sg309
g310
sg311
F0.09
sg312
F0.75
sg313
g314
sg315
g316
sg317
g318
sg319
I10
sg320
g321
sg322
g323
sg324
g306
sg325
g326
sg327
g328
sg329
g330
ssg331
(dp614
g333
I10
sg334
g335
ssg336
(dp615
g338
g339
sg340
I10
sg341
I2
sg342
I1
sg343
(lp616
I1
aI3
asg345
g346
sg347
I3
sg348
(lp617
F0.0001
aF0.1
asg350
(lp618
F0.001
aF0.2
asg352
I1
sg353
I1
sg354
g355
sg356
g357
sg358
g359
ssg360
(dp619
g362
g363
ssg364
(dp620
g366
g367
sg368
g369
sssg370
S'matlab -nodesktop -nodisplay -nosplash -r "addpath(genpath(\'./\'));try;run_convex_optimization, catch err, err, end, exit"'
p621
sg372
g373
sg374
Nsg257
S'/Users/jesse/Workspace/School/MastersThesis/Program/output//Convex-Opt-dream410-MCZ-ConvOpt-PositivePrior-Medium--2012-02-02_23.54.50//ConvOpt_T-0.02//convex_optimization_program/'
p622
sg315
S'/Users/jesse/Workspace/School/MastersThesis/Program/output//Convex-Opt-dream410-MCZ-ConvOpt-PositivePrior-Medium--2012-02-02_23.54.50//ConvOpt_T-0.02/'
p623
sg377
(iNetwork
Network
p624
(dp625
g380
I00
sg377
(dp626
g382
(dp627
g382
F0.0
sg384
F0.0010450351495308041
sg385
F0.0018128757709376941
sg386
F0.001102257835157161
sg387
F0.0016237715734348512
sg388
F0.0016600788249263587
sg389
F0.0013163745545625716
sg390
F0.0011795082064622875
sg391
F0.001096993942297786
sg392
F0.0011408698193378086
ssg384
(dp628
g382
F0.0013827917021984604
sg384
F0.0
sg385
F0.0022116581999540585
sg386
F0.0010022388651123038
sg387
F0.0
sg388
F0.0
sg389
F0.0019230754995618327
sg390
F0.0012492402303507788
sg391
F0.0
sg392
F0.0011378316867904914
ssg385
(dp629
g382
F0.0
sg384
F0.0
sg385
F0.0
sg386
F0.0010844218781898007
sg387
F0.0
sg388
F0.0013430598680059802
sg389
F0.0014818245923180484
sg390
F0.0011668399673112617
sg391
F0.0010003891431864531
sg392
F0.0011549072031300511
ssg386
(dp630
g382
F0.002894942191076666
sg384
F0.0010114491905426348
sg385
F0.0
sg386
F0.0
sg387
F0.0
sg388
F0.0016061413224122134
sg389
F0.0
sg390
F0.0014601883594309584
sg391
F0.0
sg392
F0.0
ssg387
(dp631
g382
F0.0011002415261742726
sg384
F0.0011830370962684356
sg385
F0.0012097787474516508
sg386
F0.0011632574955200425
sg387
F0.0
sg388
F0.001486930604315262
sg389
F0.001111108171087949
sg390
F0.0011366642903425372
sg391
F0.0011653592728322337
sg392
F0.0011511606122525109
ssg388
(dp632
g382
F0.0011026586496853952
sg384
F0.0
sg385
F0.0014928937553264632
sg386
F0.0010835322772493328
sg387
F0.0010345922430161636
sg388
F0.0
sg389
F0.001339025686235118
sg390
F0.0011762976367748479
sg391
F0.0010618623037288444
sg392
F0.0011273879631943373
ssg389
(dp633
g382
F0.0028185133000562246
sg384
F0.0015487963116953551
sg385
F0.011668594566131674
sg386
F0.0013204109616964388
sg387
F0.006773379615211184
sg388
F0.0
sg389
F0.0015296665178254898
sg390
F0.0011109699938032236
sg391
F0.0015119771794900316
sg392
F0.0
ssg390
(dp634
g382
F0.0
sg384
F0.001279274253050744
sg385
F0.001115063417145734
sg386
F0.0010663921449491909
sg387
F0.0018353323089570495
sg388
F0.0014394464112399419
sg389
F0.0
sg390
F0.0
sg391
F0.0
sg392
F0.0018889717603656209
ssg391
(dp635
g382
F0.0015596575095315757
sg384
F0.0
sg385
F0.0017292810828308802
sg386
F0.0010724806470534531
sg387
F0.0014043067870375125
sg388
F0.0
sg389
F0.0012565844689760297
sg390
F0.0013729663607193743
sg391
F0.0
sg392
F0.0012047347308055123
ssg392
(dp636
g382
F0.0
sg384
F0.0015482015337795474
sg385
F0.001579477327652512
sg386
F0.0016492741403766331
sg387
F0.0013621689620180177
sg388
F0.0018501087264581884
sg389
F0.0012416007916442595
sg390
F0.0
sg391
F0.0013338328326142346
sg392
F0.0
sssg402
I0
sg403
I00
sg404
g591
sg405
I0
sg406
g407
sbsg408
(lp637
g410
ag309
ag411
ag412
asg406
g407
sg413
g622
sg414
g415
sg329
S'/Users/jesse/Workspace/School/MastersThesis/Program/output//Convex-Opt-dream410-MCZ-ConvOpt-PositivePrior-Medium--2012-02-02_23.54.50//ConvOpt_T-0.02//log/'
p638
sbsg569
I3
sg24
g570
sba(iJobManager
Job
p639
(dp640
g3
g4
sg5
(iconvex_optimization
ConvexOptimization
p641
(dp642
g8
(lp643
(lp644
F-0.0020600131911123754
aF-0.0
aF0.0
aF0.0
aF-0.003403521141166266
aF0.0
aF0.0
aF-0.0
aF0.0
aF0.0011422774578306871
aa(lp645
F-0.0
aF-0.0
aF-0.0
aF-0.002010473717874106
aF0.0
aF0.0037942810586173437
aF0.0
aF0.0
aF-0.0
aF-0.0
aa(lp646
F0.0
aF0.0011953799851482927
aF-0.0016615035467992811
aF0.0015097801778125586
aF0.0019131290965930248
aF-0.0
aF-0.00107277234857861
aF-0.0
aF0.0
aF-0.0
aa(lp647
F0.0
aF0.002438666431046954
aF-0.001365863908006304
aF-0.0
aF0.0
aF0.0
aF-0.0
aF0.0
aF0.0
aF-0.0
aa(lp648
F0.003425312552948867
aF0.0
aF-0.0021706467194491097
aF-0.0
aF-0.0
aF-0.002218667529646723
aF-0.0
aF-0.0011586930643971982
aF0.0
aF-0.0
aa(lp649
F-0.0
aF-0.004059946884240162
aF0.0012106267618463562
aF-0.0
aF0.001163932797098255
aF-0.0
aF0.0
aF0.0016921037730526223
aF0.0
aF-0.0
aa(lp650
F-0.0
aF-0.0
aF0.001640358051318458
aF0.0
aF0.0
aF0.0
aF-0.0
aF-0.0
aF-0.0
aF0.0011697287821164082
aa(lp651
F0.0
aF0.0
aF0.0
aF-0.0012641999498157475
aF0.0013194940729590598
aF-0.0022926992030534166
aF0.0013086003469027219
aF-0.0012244666826433104
aF0.0
aF-0.0
aa(lp652
F-0.0
aF-0.0
aF0.0
aF-0.0
aF-0.0
aF0.0
aF0.0011763157803272861
aF-0.0
aF-0.0
aF0.0011312801783134319
aa(lp653
F-0.0014479687471720126
aF0.0
aF0.0012182506941087468
aF0.0019328232130391143
aF-0.0
aF0.0014696595113719013
aF-0.0
aF0.0
aF-0.0
aF-0.0
aasg20
S'/Users/jesse/Workspace/School/MastersThesis/Program/output//Convex-Opt-dream410-MCZ-ConvOpt-PositivePrior-Medium--2012-02-02_23.54.50//ConvOpt_T-0.0//data/'
p654
sg22
S'ConvOpt_T-0.0'
p655
sg24
(dp656
g26
(dp657
g28
g29
sg30
g31
ssg32
(dp658
g34
g35
ssg36
(dp659
g38
g39
ssg40
(dp660
g42
g43
ssg44
(dp661
g46
g47
ssg48
(dp662
g50
g51
sg52
g53
sg54
g55
sg56
g57
sg58
I50
sg59
g60
sg61
g62
sg63
g64
sg65
g66
sg67
g68
sg69
g70
sg71
g72
sg73
g74
sg75
g76
sg77
I50
sg78
g79
sg80
g81
sg82
g83
sg84
g85
sg86
g87
sg88
g89
sg90
g91
sg92
g93
sg94
g95
sg96
I50
sg97
g98
sg99
g100
sg101
g102
sg103
g104
sg105
g106
sg107
g108
sg109
g110
sg111
g112
sg113
g114
sg115
I3
sg116
g117
sg118
g119
sg120
I50
sg121
I50
sg122
g123
sg124
g125
sg126
g127
sg128
g129
sg130
g131
sg132
g133
sg134
g135
sg136
I50
sg137
g138
sg139
g140
sg141
g142
sg143
g144
sg145
I30
sg146
g147
sg148
g149
sg150
g151
sg152
g153
sg154
g155
sg156
g157
sg158
g159
sg160
g161
sg162
g163
sg164
g165
sg166
g167
sg168
g169
sg170
g171
sg172
g173
sg174
I50
sg175
g176
sg177
g178
sg179
g180
sg181
g182
sg183
g184
sg185
I50
sg186
g187
sg188
g189
sg190
g191
sg192
g193
sg194
I50
sg195
g196
sg197
g198
sg199
g200
sg201
I50
sg202
g203
sg204
g205
sg206
g207
sg208
g209
sg210
I30
sg211
g212
sg213
g214
sg215
g216
sg217
I50
sg218
g219
sg220
g221
sg222
g223
sg224
g225
sg226
g227
sg228
g229
sg230
g231
sg232
g233
sg234
g235
sg236
g237
sg238
g239
sg240
g241
sg242
g243
sg244
g245
sg246
g247
sg248
I50
sg249
g250
sg251
g252
sg253
g254
sg255
g256
sg257
g258
sg259
g260
sg261
g262
sg263
g264
sg265
g266
sg267
g268
sg269
g270
sg271
g272
sg273
I50
sg274
g275
sg276
g277
sg278
g279
sg280
g281
sg282
g283
sg284
I50
sg285
g286
sg287
g288
sg289
I50
sg290
I50
sg291
g292
ssg293
(dp663
g295
g296
ssg297
(dp664
g299
g300
ssg301
(dp665
g303
g304
sg305
g306
sg20
g307
sg22
g308
sg309
g310
sg311
F0.09
sg312
F0.75
sg313
g314
sg315
g316
sg317
g318
sg319
I10
sg320
g321
sg322
g323
sg324
g306
sg325
g326
sg327
g328
sg329
g330
ssg331
(dp666
g333
I10
sg334
g335
ssg336
(dp667
g338
g339
sg340
I10
sg341
I2
sg342
I1
sg343
(lp668
I1
aI3
asg345
g346
sg347
I3
sg348
(lp669
F0.0001
aF0.1
asg350
(lp670
F0.001
aF0.2
asg352
I1
sg353
I1
sg354
g355
sg356
g357
sg358
g359
ssg360
(dp671
g362
g363
ssg364
(dp672
g366
g367
sg368
g369
sssg370
S'matlab -nodesktop -nodisplay -nosplash -r "addpath(genpath(\'./\'));try;run_convex_optimization, catch err, err, end, exit"'
p673
sg372
g373
sg374
Nsg257
S'/Users/jesse/Workspace/School/MastersThesis/Program/output//Convex-Opt-dream410-MCZ-ConvOpt-PositivePrior-Medium--2012-02-02_23.54.50//ConvOpt_T-0.0//convex_optimization_program/'
p674
sg315
S'/Users/jesse/Workspace/School/MastersThesis/Program/output//Convex-Opt-dream410-MCZ-ConvOpt-PositivePrior-Medium--2012-02-02_23.54.50//ConvOpt_T-0.0/'
p675
sg377
(iNetwork
Network
p676
(dp677
g380
I00
sg377
(dp678
g382
(dp679
g382
F0.0
sg384
F0.0
sg385
F0.0
sg386
F0.0
sg387
F0.001640358051318458
sg388
F0.0
sg389
F0.0
sg390
F0.0
sg391
F0.0
sg392
F0.0011697287821164082
ssg384
(dp680
g382
F0.0
sg384
F0.0
sg385
F0.001163932797098255
sg386
F0.0
sg387
F0.0012106267618463562
sg388
F0.004059946884240162
sg389
F0.0
sg390
F0.0
sg391
F0.0016921037730526223
sg392
F0.0
ssg385
(dp681
g382
F0.0
sg384
F0.002218667529646723
sg385
F0.0
sg386
F0.0
sg387
F0.0021706467194491097
sg388
F0.0
sg389
F0.003425312552948867
sg390
F0.0
sg391
F0.0011586930643971982
sg392
F0.0
ssg386
(dp682
g382
F0.0
sg384
F0.0
sg385
F0.0
sg386
F0.0
sg387
F0.001365863908006304
sg388
F0.002438666431046954
sg389
F0.0
sg390
F0.0
sg391
F0.0
sg392
F0.0
ssg387
(dp683
g382
F0.00107277234857861
sg384
F0.0
sg385
F0.0019131290965930248
sg386
F0.0015097801778125586
sg387
F0.0016615035467992811
sg388
F0.0011953799851482927
sg389
F0.0
sg390
F0.0
sg391
F0.0
sg392
F0.0
ssg388
(dp684
g382
F0.0
sg384
F0.0037942810586173437
sg385
F0.0
sg386
F0.002010473717874106
sg387
F0.0
sg388
F0.0
sg389
F0.0
sg390
F0.0
sg391
F0.0
sg392
F0.0
ssg389
(dp685
g382
F0.0
sg384
F0.0
sg385
F0.003403521141166266
sg386
F0.0
sg387
F0.0
sg388
F0.0
sg389
F0.0020600131911123754
sg390
F0.0
sg391
F0.0
sg392
F0.0011422774578306871
ssg390
(dp686
g382
F0.0011763157803272861
sg384
F0.0
sg385
F0.0
sg386
F0.0
sg387
F0.0
sg388
F0.0
sg389
F0.0
sg390
F0.0
sg391
F0.0
sg392
F0.0011312801783134319
ssg391
(dp687
g382
F0.0013086003469027219
sg384
F0.0022926992030534166
sg385
F0.0013194940729590598
sg386
F0.0012641999498157475
sg387
F0.0
sg388
F0.0
sg389
F0.0
sg390
F0.0
sg391
F0.0012244666826433104
sg392
F0.0
ssg392
(dp688
g382
F0.0
sg384
F0.0014696595113719013
sg385
F0.0
sg386
F0.0019328232130391143
sg387
F0.0012182506941087468
sg388
F0.0
sg389
F0.0014479687471720126
sg390
F0.0
sg391
F0.0
sg392
F0.0
sssg402
I0
sg403
I00
sg404
g643
sg405
I0
sg406
g407
sbsg408
(lp689
g410
ag309
ag411
ag412
asg406
g407
sg413
g674
sg414
g415
sg329
S'/Users/jesse/Workspace/School/MastersThesis/Program/output//Convex-Opt-dream410-MCZ-ConvOpt-PositivePrior-Medium--2012-02-02_23.54.50//ConvOpt_T-0.0//log/'
p690
sbsg569
I1
sg24
g570
sba(iJobManager
Job
p691
(dp692
g3
g4
sg5
(iconvex_optimization
ConvexOptimization
p693
(dp694
g8
(lp695
(lp696
F-0.0
aF0.0018705284243623055
aF0.0017526464722976698
aF0.0017575023150726565
aF-0.01417839756842909
aF0.0020005771542486173
aF0.0028334847385593775
aF0.0021516474559888366
aF0.001543110905032563
aF0.001431392573479684
aa(lp697
F0.0011607224489296186
aF-0.0
aF0.001265042417855966
aF0.0012358869779660608
aF0.0017041206440779888
aF0.0012918916765727317
aF0.0010546182283519556
aF0.0012500323684747627
aF0.0012063917947671143
aF0.001220438284221359
aa(lp698
F0.0028947853566876347
aF0.001779075079099357
aF-0.0
aF0.0029097652521699047
aF0.004220680615958372
aF0.0
aF-0.0
aF0.0
aF0.0
aF0.0
aa(lp699
F0.0
aF0.0023300400406327526
aF-0.0
aF0.0
aF-0.0
aF0.0
aF0.004011763459757844
aF0.0
aF0.0016755757793021075
aF0.0
aa(lp700
F0.0016081239835727956
aF0.0011262642075280382
aF0.0010967606419995946
aF0.001252476761706589
aF-0.0
aF0.0
aF0.0011728690596157776
aF0.0010666331766060466
aF0.001220036147330461
aF0.0011964827652377608
aa(lp701
F0.0028148325188652734
aF-0.002966528198157903
aF0.0
aF0.001089216595914877
aF0.0041667920721977225
aF-0.0
aF0.001897972002936399
aF0.0
aF0.0013056929551709118
aF0.0010427985918113336
aa(lp702
F0.0010928773564842231
aF0.0030396896563615883
aF0.0011923608882398185
aF0.0011301617825836274
aF0.001369127440582929
aF0.0011991529567438874
aF0.0
aF0.001212290072118094
aF0.0012125436939811607
aF0.0012067529985984038
aa(lp703
F0.0014737090786951512
aF0.0
aF0.001391910435629029
aF0.0010317587487804758
aF0.0018678204029498602
aF0.0
aF0.002016791639476878
aF0.0
aF0.001468077716310745
aF0.0011849531411627368
aa(lp704
F0.0
aF0.0022764370773415976
aF0.001563247217092112
aF0.0
aF0.0
aF0.0016034398103528247
aF0.0015200705518907398
aF0.0012928005269685627
aF0.0
aF0.0019515163437517913
aa(lp705
F0.0
aF0.002650562070400042
aF0.0015884541166855115
aF0.0018361195419345222
aF0.0011376063996237917
aF0.0021876485983653993
aF0.0
aF0.0017762445545486116
aF0.0
aF0.0
aasg20
S'/Users/jesse/Workspace/School/MastersThesis/Program/output//Convex-Opt-dream410-MCZ-ConvOpt-PositivePrior-Medium--2012-02-02_23.54.50//ConvOpt_T-0.01//data/'
p706
sg22
S'ConvOpt_T-0.01'
p707
sg24
(dp708
g26
(dp709
g28
g29
sg30
g31
ssg32
(dp710
g34
g35
ssg36
(dp711
g38
g39
ssg40
(dp712
g42
g43
ssg44
(dp713
g46
g47
ssg48
(dp714
g50
g51
sg52
g53
sg54
g55
sg56
g57
sg58
I50
sg59
g60
sg61
g62
sg63
g64
sg65
g66
sg67
g68
sg69
g70
sg71
g72
sg73
g74
sg75
g76
sg77
I50
sg78
g79
sg80
g81
sg82
g83
sg84
g85
sg86
g87
sg88
g89
sg90
g91
sg92
g93
sg94
g95
sg96
I50
sg97
g98
sg99
g100
sg101
g102
sg103
g104
sg105
g106
sg107
g108
sg109
g110
sg111
g112
sg113
g114
sg115
I3
sg116
g117
sg118
g119
sg120
I50
sg121
I50
sg122
g123
sg124
g125
sg126
g127
sg128
g129
sg130
g131
sg132
g133
sg134
g135
sg136
I50
sg137
g138
sg139
g140
sg141
g142
sg143
g144
sg145
I30
sg146
g147
sg148
g149
sg150
g151
sg152
g153
sg154
g155
sg156
g157
sg158
g159
sg160
g161
sg162
g163
sg164
g165
sg166
g167
sg168
g169
sg170
g171
sg172
g173
sg174
I50
sg175
g176
sg177
g178
sg179
g180
sg181
g182
sg183
g184
sg185
I50
sg186
g187
sg188
g189
sg190
g191
sg192
g193
sg194
I50
sg195
g196
sg197
g198
sg199
g200
sg201
I50
sg202
g203
sg204
g205
sg206
g207
sg208
g209
sg210
I30
sg211
g212
sg213
g214
sg215
g216
sg217
I50
sg218
g219
sg220
g221
sg222
g223
sg224
g225
sg226
g227
sg228
g229
sg230
g231
sg232
g233
sg234
g235
sg236
g237
sg238
g239
sg240
g241
sg242
g243
sg244
g245
sg246
g247
sg248
I50
sg249
g250
sg251
g252
sg253
g254
sg255
g256
sg257
g258
sg259
g260
sg261
g262
sg263
g264
sg265
g266
sg267
g268
sg269
g270
sg271
g272
sg273
I50
sg274
g275
sg276
g277
sg278
g279
sg280
g281
sg282
g283
sg284
I50
sg285
g286
sg287
g288
sg289
I50
sg290
I50
sg291
g292
ssg293
(dp715
g295
g296
ssg297
(dp716
g299
g300
ssg301
(dp717
g303
g304
sg305
g306
sg20
g307
sg22
g308
sg309
g310
sg311
F0.09
sg312
F0.75
sg313
g314
sg315
g316
sg317
g318
sg319
I10
sg320
g321
sg322
g323
sg324
g306
sg325
g326
sg327
g328
sg329
g330
ssg331
(dp718
g333
I10
sg334
g335
ssg336
(dp719
g338
g339
sg340
I10
sg341
I2
sg342
I1
sg343
(lp720
I1
aI3
asg345
g346
sg347
I3
sg348
(lp721
F0.0001
aF0.1
asg350
(lp722
F0.001
aF0.2
asg352
I1
sg353
I1
sg354
g355
sg356
g357
sg358
g359
ssg360
(dp723
g362
g363
ssg364
(dp724
g366
g367
sg368
g369
sssg370
S'matlab -nodesktop -nodisplay -nosplash -r "addpath(genpath(\'./\'));try;run_convex_optimization, catch err, err, end, exit"'
p725
sg372
g373
sg374
Nsg257
S'/Users/jesse/Workspace/School/MastersThesis/Program/output//Convex-Opt-dream410-MCZ-ConvOpt-PositivePrior-Medium--2012-02-02_23.54.50//ConvOpt_T-0.01//convex_optimization_program/'
p726
sg315
S'/Users/jesse/Workspace/School/MastersThesis/Program/output//Convex-Opt-dream410-MCZ-ConvOpt-PositivePrior-Medium--2012-02-02_23.54.50//ConvOpt_T-0.01/'
p727
sg377
(iNetwork
Network
p728
(dp729
g380
I00
sg377
(dp730
g382
(dp731
g382
F0.0
sg384
F0.0011991529567438874
sg385
F0.001369127440582929
sg386
F0.0011301617825836274
sg387
F0.0011923608882398185
sg388
F0.0030396896563615883
sg389
F0.0010928773564842231
sg390
F0.0012125436939811607
sg391
F0.001212290072118094
sg392
F0.0012067529985984038
ssg384
(dp732
g382
F0.001897972002936399
sg384
F0.0
sg385
F0.0041667920721977225
sg386
F0.001089216595914877
sg387
F0.0
sg388
F0.002966528198157903
sg389
F0.0028148325188652734
sg390
F0.0013056929551709118
sg391
F0.0
sg392
F0.0010427985918113336
ssg385
(dp733
g382
F0.0011728690596157776
sg384
F0.0
sg385
F0.0
sg386
F0.001252476761706589
sg387
F0.0010967606419995946
sg388
F0.0011262642075280382
sg389
F0.0016081239835727956
sg390
F0.001220036147330461
sg391
F0.0010666331766060466
sg392
F0.0011964827652377608
ssg386
(dp734
g382
F0.004011763459757844
sg384
F0.0
sg385
F0.0
sg386
F0.0
sg387
F0.0
sg388
F0.0023300400406327526
sg389
F0.0
sg390
F0.0016755757793021075
sg391
F0.0
sg392
F0.0
ssg387
(dp735
g382
F0.0
sg384
F0.0
sg385
F0.004220680615958372
sg386
F0.0029097652521699047
sg387
F0.0
sg388
F0.001779075079099357
sg389
F0.0028947853566876347
sg390
F0.0
sg391
F0.0
sg392
F0.0
ssg388
(dp736
g382
F0.0010546182283519556
sg384
F0.0012918916765727317
sg385
F0.0017041206440779888
sg386
F0.0012358869779660608
sg387
F0.001265042417855966
sg388
F0.0
sg389
F0.0011607224489296186
sg390
F0.0012063917947671143
sg391
F0.0012500323684747627
sg392
F0.001220438284221359
ssg389
(dp737
g382
F0.0028334847385593775
sg384
F0.0020005771542486173
sg385
F0.01417839756842909
sg386
F0.0017575023150726565
sg387
F0.0017526464722976698
sg388
F0.0018705284243623055
sg389
F0.0
sg390
F0.001543110905032563
sg391
F0.0021516474559888366
sg392
F0.001431392573479684
ssg390
(dp738
g382
F0.0015200705518907398
sg384
F0.0016034398103528247
sg385
F0.0
sg386
F0.0
sg387
F0.001563247217092112
sg388
F0.0022764370773415976
sg389
F0.0
sg390
F0.0
sg391
F0.0012928005269685627
sg392
F0.0019515163437517913
ssg391
(dp739
g382
F0.002016791639476878
sg384
F0.0
sg385
F0.0018678204029498602
sg386
F0.0010317587487804758
sg387
F0.001391910435629029
sg388
F0.0
sg389
F0.0014737090786951512
sg390
F0.001468077716310745
sg391
F0.0
sg392
F0.0011849531411627368
ssg392
(dp740
g382
F0.0
sg384
F0.0021876485983653993
sg385
F0.0011376063996237917
sg386
F0.0018361195419345222
sg387
F0.0015884541166855115
sg388
F0.002650562070400042
sg389
F0.0
sg390
F0.0
sg391
F0.0017762445545486116
sg392
F0.0
sssg402
I0
sg403
I00
sg404
g695
sg405
I0
sg406
g407
sbsg408
(lp741
g410
ag309
ag411
ag412
asg406
g407
sg413
g726
sg414
g415
sg329
S'/Users/jesse/Workspace/School/MastersThesis/Program/output//Convex-Opt-dream410-MCZ-ConvOpt-PositivePrior-Medium--2012-02-02_23.54.50//ConvOpt_T-0.01//log/'
p742
sbsg569
I2
sg24
g570
sba(iJobManager
Job
p743
(dp744
g3
g4
sg5
(iconvex_optimization
ConvexOptimization
p745
(dp746
g8
(lp747
(lp748
F0.0019357480243940017
aF-0.0
aF0.0
aF-0.0
aF-0.012227349303515211
aF-0.0
aF-0.0
aF-0.0
aF-0.0
aF-0.0
aa(lp749
F0.0
aF0.0
aF-0.0
aF-0.0
aF-0.0
aF0.0
aF-0.0
aF-0.0
aF-0.0
aF-0.0
aa(lp750
F-0.0
aF-0.0
aF0.0
aF0.0
aF0.0
aF-0.0
aF-0.0
aF-0.0
aF-0.0
aF-0.0
aa(lp751
F-0.0
aF-0.0
aF-0.0
aF0.0
aF-0.0
aF-0.0
aF-0.0
aF0.0
aF0.0
aF-0.0
aa(lp752
F-0.0
aF0.0
aF-0.0
aF-0.0
aF0.0
aF0.0
aF-0.0
aF0.0
aF0.0
aF-0.0
aa(lp753
F-0.0
aF-0.0
aF-0.0
aF-0.0
aF0.0
aF0.0
aF0.0
aF-0.0
aF-0.0
aF-0.0
aa(lp754
F0.0
aF-0.0
aF0.0
aF-0.0
aF-0.0
aF-0.0
aF0.0
aF-0.0
aF-0.0
aF0.0
aa(lp755
F-0.001792725540113338
aF-0.007945653673615993
aF0.0
aF-0.0032531751682682852
aF0.0
aF-0.010985052034001797
aF0.0027579442896268347
aF0.006455189613930656
aF0.0015885469470333646
aF-0.0
aa(lp756
F-0.005301474234983061
aF-0.004430319800476923
aF-0.0
aF-0.004623110352866888
aF-0.0021576197927117846
aF-0.0025500026082738714
aF0.0
aF-0.003073996639770371
aF0.013402886824778193
aF0.0
aa(lp757
F0.0
aF0.0027796391058387826
aF-0.0046708179128671645
aF0.0021936545575016453
aF0.0
aF0.0025791112817614703
aF-0.003072602455702622
aF0.0
aF-0.012398716396006648
aF0.012063314092102928
aasg20
S'/Users/jesse/Workspace/School/MastersThesis/Program/output//Convex-Opt-dream410-MCZ-ConvOpt-PositivePrior-Medium--2012-02-02_23.54.50//ConvOpt_T-0.03//data/'
p758
sg22
S'ConvOpt_T-0.03'
p759
sg24
(dp760
g26
(dp761
g28
g29
sg30
g31
ssg32
(dp762
g34
g35
ssg36
(dp763
g38
g39
ssg40
(dp764
g42
g43
ssg44
(dp765
g46
g47
ssg48
(dp766
g50
g51
sg52
g53
sg54
g55
sg56
g57
sg58
I50
sg59
g60
sg61
g62
sg63
g64
sg65
g66
sg67
g68
sg69
g70
sg71
g72
sg73
g74
sg75
g76
sg77
I50
sg78
g79
sg80
g81
sg82
g83
sg84
g85
sg86
g87
sg88
g89
sg90
g91
sg92
g93
sg94
g95
sg96
I50
sg97
g98
sg99
g100
sg101
g102
sg103
g104
sg105
g106
sg107
g108
sg109
g110
sg111
g112
sg113
g114
sg115
I3
sg116
g117
sg118
g119
sg120
I50
sg121
I50
sg122
g123
sg124
g125
sg126
g127
sg128
g129
sg130
g131
sg132
g133
sg134
g135
sg136
I50
sg137
g138
sg139
g140
sg141
g142
sg143
g144
sg145
I30
sg146
g147
sg148
g149
sg150
g151
sg152
g153
sg154
g155
sg156
g157
sg158
g159
sg160
g161
sg162
g163
sg164
g165
sg166
g167
sg168
g169
sg170
g171
sg172
g173
sg174
I50
sg175
g176
sg177
g178
sg179
g180
sg181
g182
sg183
g184
sg185
I50
sg186
g187
sg188
g189
sg190
g191
sg192
g193
sg194
I50
sg195
g196
sg197
g198
sg199
g200
sg201
I50
sg202
g203
sg204
g205
sg206
g207
sg208
g209
sg210
I30
sg211
g212
sg213
g214
sg215
g216
sg217
I50
sg218
g219
sg220
g221
sg222
g223
sg224
g225
sg226
g227
sg228
g229
sg230
g231
sg232
g233
sg234
g235
sg236
g237
sg238
g239
sg240
g241
sg242
g243
sg244
g245
sg246
g247
sg248
I50
sg249
g250
sg251
g252
sg253
g254
sg255
g256
sg257
g258
sg259
g260
sg261
g262
sg263
g264
sg265
g266
sg267
g268
sg269
g270
sg271
g272
sg273
I50
sg274
g275
sg276
g277
sg278
g279
sg280
g281
sg282
g283
sg284
I50
sg285
g286
sg287
g288
sg289
I50
sg290
I50
sg291
g292
ssg293
(dp767
g295
g296
ssg297
(dp768
g299
g300
ssg301
(dp769
g303
g304
sg305
g306
sg20
g307
sg22
g308
sg309
g310
sg311
F0.09
sg312
F0.75
sg313
g314
sg315
g316
sg317
g318
sg319
I10
sg320
g321
sg322
g323
sg324
g306
sg325
g326
sg327
g328
sg329
g330
ssg331
(dp770
g333
I10
sg334
g335
ssg336
(dp771
g338
g339
sg340
I10
sg341
I2
sg342
I1
sg343
(lp772
I1
aI3
asg345
g346
sg347
I3
sg348
(lp773
F0.0001
aF0.1
asg350
(lp774
F0.001
aF0.2
asg352
I1
sg353
I1
sg354
g355
sg356
g357
sg358
g359
ssg360
(dp775
g362
g363
ssg364
(dp776
g366
g367
sg368
g369
sssg370
S'matlab -nodesktop -nodisplay -nosplash -r "addpath(genpath(\'./\'));try;run_convex_optimization, catch err, err, end, exit"'
p777
sg372
g373
sg374
Nsg257
S'/Users/jesse/Workspace/School/MastersThesis/Program/output//Convex-Opt-dream410-MCZ-ConvOpt-PositivePrior-Medium--2012-02-02_23.54.50//ConvOpt_T-0.03//convex_optimization_program/'
p778
sg315
S'/Users/jesse/Workspace/School/MastersThesis/Program/output//Convex-Opt-dream410-MCZ-ConvOpt-PositivePrior-Medium--2012-02-02_23.54.50//ConvOpt_T-0.03/'
p779
sg377
(iNetwork
Network
p780
(dp781
g380
I00
sg377
(dp782
g382
(dp783
g382
F0.0
sg384
F0.0
sg385
F0.0
sg386
F0.0
sg387
F0.0
sg388
F0.0
sg389
F0.0
sg390
F0.0
sg391
F0.0
sg392
F0.0
ssg384
(dp784
g382
F0.0
sg384
F0.0
sg385
F0.0
sg386
F0.0
sg387
F0.0
sg388
F0.0
sg389
F0.0
sg390
F0.0
sg391
F0.0
sg392
F0.0
ssg385
(dp785
g382
F0.0
sg384
F0.0
sg385
F0.0
sg386
F0.0
sg387
F0.0
sg388
F0.0
sg389
F0.0
sg390
F0.0
sg391
F0.0
sg392
F0.0
ssg386
(dp786
g382
F0.0
sg384
F0.0
sg385
F0.0
sg386
F0.0
sg387
F0.0
sg388
F0.0
sg389
F0.0
sg390
F0.0
sg391
F0.0
sg392
F0.0
ssg387
(dp787
g382
F0.0
sg384
F0.0
sg385
F0.0
sg386
F0.0
sg387
F0.0
sg388
F0.0
sg389
F0.0
sg390
F0.0
sg391
F0.0
sg392
F0.0
ssg388
(dp788
g382
F0.0
sg384
F0.0
sg385
F0.0
sg386
F0.0
sg387
F0.0
sg388
F0.0
sg389
F0.0
sg390
F0.0
sg391
F0.0
sg392
F0.0
ssg389
(dp789
g382
F0.0
sg384
F0.0
sg385
F0.012227349303515211
sg386
F0.0
sg387
F0.0
sg388
F0.0
sg389
F0.0019357480243940017
sg390
F0.0
sg391
F0.0
sg392
F0.0
ssg390
(dp790
g382
F0.0
sg384
F0.0025500026082738714
sg385
F0.0021576197927117846
sg386
F0.004623110352866888
sg387
F0.0
sg388
F0.004430319800476923
sg389
F0.005301474234983061
sg390
F0.013402886824778193
sg391
F0.003073996639770371
sg392
F0.0
ssg391
(dp791
g382
F0.0027579442896268347
sg384
F0.010985052034001797
sg385
F0.0
sg386
F0.0032531751682682852
sg387
F0.0
sg388
F0.007945653673615993
sg389
F0.001792725540113338
sg390
F0.0015885469470333646
sg391
F0.006455189613930656
sg392
F0.0
ssg392
(dp792
g382
F0.003072602455702622
sg384
F0.0025791112817614703
sg385
F0.0
sg386
F0.0021936545575016453
sg387
F0.0046708179128671645
sg388
F0.0027796391058387826
sg389
F0.0
sg390
F0.012398716396006648
sg391
F0.0
sg392
F0.012063314092102928
sssg402
I0
sg403
I00
sg404
g747
sg405
I0
sg406
g407
sbsg408
(lp793
g410
ag309
ag411
ag412
asg406
g407
sg413
g778
sg414
g415
sg329
S'/Users/jesse/Workspace/School/MastersThesis/Program/output//Convex-Opt-dream410-MCZ-ConvOpt-PositivePrior-Medium--2012-02-02_23.54.50//ConvOpt_T-0.03//log/'
p794
sbsg569
I4
sg24
g570
sba(iJobManager
Job
p795
(dp796
g3
g4
sg5
(iconvex_optimization
ConvexOptimization
p797
(dp798
g8
(lp799
(lp800
F0.0019341557983949542
aF-0.0
aF0.0
aF-0.0
aF-0.012230249984199304
aF-0.0
aF0.0
aF-0.0
aF-0.0
aF-0.0
aa(lp801
F0.0
aF0.0
aF-0.0
aF-0.0
aF-0.0
aF0.0
aF-0.0
aF-0.0
aF0.0
aF-0.0
aa(lp802
F-0.0
aF-0.0
aF0.0
aF0.0
aF0.0
aF-0.0
aF-0.0
aF-0.0
aF-0.0
aF-0.0
aa(lp803
F-0.0
aF-0.0
aF-0.0
aF0.0
aF-0.0
aF-0.0
aF-0.0
aF0.0
aF0.0
aF-0.0
aa(lp804
F-0.0
aF0.0
aF-0.0
aF-0.0
aF0.0
aF0.0
aF-0.0
aF0.0
aF0.0
aF-0.0
aa(lp805
F-0.0
aF-0.0
aF-0.0
aF-0.0
aF0.0
aF0.0
aF0.0
aF-0.0
aF-0.0
aF-0.0
aa(lp806
F0.0
aF-0.0
aF0.0
aF-0.0
aF-0.0
aF-0.0
aF0.0
aF-0.0
aF-0.0
aF0.0
aa(lp807
F-0.0017835561360755037
aF-0.007934954124905857
aF0.0
aF-0.0032393918182407333
aF0.0
aF-0.010972949141432764
aF0.002735871878684293
aF0.006457198879914472
aF0.0015451261966461516
aF-0.0
aa(lp808
F-0.0
aF-0.0
aF-0.0
aF-0.0
aF-0.0
aF-0.0
aF0.0
aF-0.0
aF0.0
aF0.0
aa(lp809
F0.0
aF0.0
aF-0.0
aF0.0
aF-0.0
aF0.0
aF-0.0
aF-0.0
aF-0.0
aF0.0
aasg20
S'/Users/jesse/Workspace/School/MastersThesis/Program/output//Convex-Opt-dream410-MCZ-ConvOpt-PositivePrior-Medium--2012-02-02_23.54.50//ConvOpt_T-0.04//data/'
p810
sg22
S'ConvOpt_T-0.04'
p811
sg24
(dp812
g26
(dp813
g28
g29
sg30
g31
ssg32
(dp814
g34
g35
ssg36
(dp815
g38
g39
ssg40
(dp816
g42
g43
ssg44
(dp817
g46
g47
ssg48
(dp818
g50
g51
sg52
g53
sg54
g55
sg56
g57
sg58
I50
sg59
g60
sg61
g62
sg63
g64
sg65
g66
sg67
g68
sg69
g70
sg71
g72
sg73
g74
sg75
g76
sg77
I50
sg78
g79
sg80
g81
sg82
g83
sg84
g85
sg86
g87
sg88
g89
sg90
g91
sg92
g93
sg94
g95
sg96
I50
sg97
g98
sg99
g100
sg101
g102
sg103
g104
sg105
g106
sg107
g108
sg109
g110
sg111
g112
sg113
g114
sg115
I3
sg116
g117
sg118
g119
sg120
I50
sg121
I50
sg122
g123
sg124
g125
sg126
g127
sg128
g129
sg130
g131
sg132
g133
sg134
g135
sg136
I50
sg137
g138
sg139
g140
sg141
g142
sg143
g144
sg145
I30
sg146
g147
sg148
g149
sg150
g151
sg152
g153
sg154
g155
sg156
g157
sg158
g159
sg160
g161
sg162
g163
sg164
g165
sg166
g167
sg168
g169
sg170
g171
sg172
g173
sg174
I50
sg175
g176
sg177
g178
sg179
g180
sg181
g182
sg183
g184
sg185
I50
sg186
g187
sg188
g189
sg190
g191
sg192
g193
sg194
I50
sg195
g196
sg197
g198
sg199
g200
sg201
I50
sg202
g203
sg204
g205
sg206
g207
sg208
g209
sg210
I30
sg211
g212
sg213
g214
sg215
g216
sg217
I50
sg218
g219
sg220
g221
sg222
g223
sg224
g225
sg226
g227
sg228
g229
sg230
g231
sg232
g233
sg234
g235
sg236
g237
sg238
g239
sg240
g241
sg242
g243
sg244
g245
sg246
g247
sg248
I50
sg249
g250
sg251
g252
sg253
g254
sg255
g256
sg257
g258
sg259
g260
sg261
g262
sg263
g264
sg265
g266
sg267
g268
sg269
g270
sg271
g272
sg273
I50
sg274
g275
sg276
g277
sg278
g279
sg280
g281
sg282
g283
sg284
I50
sg285
g286
sg287
g288
sg289
I50
sg290
I50
sg291
g292
ssg293
(dp819
g295
g296
ssg297
(dp820
g299
g300
ssg301
(dp821
g303
g304
sg305
g306
sg20
g307
sg22
g308
sg309
g310
sg311
F0.09
sg312
F0.75
sg313
g314
sg315
g316
sg317
g318
sg319
I10
sg320
g321
sg322
g323
sg324
g306
sg325
g326
sg327
g328
sg329
g330
ssg331
(dp822
g333
I10
sg334
g335
ssg336
(dp823
g338
g339
sg340
I10
sg341
I2
sg342
I1
sg343
(lp824
I1
aI3
asg345
g346
sg347
I3
sg348
(lp825
F0.0001
aF0.1
asg350
(lp826
F0.001
aF0.2
asg352
I1
sg353
I1
sg354
g355
sg356
g357
sg358
g359
ssg360
(dp827
g362
g363
ssg364
(dp828
g366
g367
sg368
g369
sssg370
S'matlab -nodesktop -nodisplay -nosplash -r "addpath(genpath(\'./\'));try;run_convex_optimization, catch err, err, end, exit"'
p829
sg372
g373
sg374
Nsg257
S'/Users/jesse/Workspace/School/MastersThesis/Program/output//Convex-Opt-dream410-MCZ-ConvOpt-PositivePrior-Medium--2012-02-02_23.54.50//ConvOpt_T-0.04//convex_optimization_program/'
p830
sg315
S'/Users/jesse/Workspace/School/MastersThesis/Program/output//Convex-Opt-dream410-MCZ-ConvOpt-PositivePrior-Medium--2012-02-02_23.54.50//ConvOpt_T-0.04/'
p831
sg377
(iNetwork
Network
p832
(dp833
g380
I00
sg377
(dp834
g382
(dp835
g382
F0.0
sg384
F0.0
sg385
F0.0
sg386
F0.0
sg387
F0.0
sg388
F0.0
sg389
F0.0
sg390
F0.0
sg391
F0.0
sg392
F0.0
ssg384
(dp836
g382
F0.0
sg384
F0.0
sg385
F0.0
sg386
F0.0
sg387
F0.0
sg388
F0.0
sg389
F0.0
sg390
F0.0
sg391
F0.0
sg392
F0.0
ssg385
(dp837
g382
F0.0
sg384
F0.0
sg385
F0.0
sg386
F0.0
sg387
F0.0
sg388
F0.0
sg389
F0.0
sg390
F0.0
sg391
F0.0
sg392
F0.0
ssg386
(dp838
g382
F0.0
sg384
F0.0
sg385
F0.0
sg386
F0.0
sg387
F0.0
sg388
F0.0
sg389
F0.0
sg390
F0.0
sg391
F0.0
sg392
F0.0
ssg387
(dp839
g382
F0.0
sg384
F0.0
sg385
F0.0
sg386
F0.0
sg387
F0.0
sg388
F0.0
sg389
F0.0
sg390
F0.0
sg391
F0.0
sg392
F0.0
ssg388
(dp840
g382
F0.0
sg384
F0.0
sg385
F0.0
sg386
F0.0
sg387
F0.0
sg388
F0.0
sg389
F0.0
sg390
F0.0
sg391
F0.0
sg392
F0.0
ssg389
(dp841
g382
F0.0
sg384
F0.0
sg385
F0.012230249984199304
sg386
F0.0
sg387
F0.0
sg388
F0.0
sg389
F0.0019341557983949542
sg390
F0.0
sg391
F0.0
sg392
F0.0
ssg390
(dp842
g382
F0.0
sg384
F0.0
sg385
F0.0
sg386
F0.0
sg387
F0.0
sg388
F0.0
sg389
F0.0
sg390
F0.0
sg391
F0.0
sg392
F0.0
ssg391
(dp843
g382
F0.002735871878684293
sg384
F0.010972949141432764
sg385
F0.0
sg386
F0.0032393918182407333
sg387
F0.0
sg388
F0.007934954124905857
sg389
F0.0017835561360755037
sg390
F0.0015451261966461516
sg391
F0.006457198879914472
sg392
F0.0
ssg392
(dp844
g382
F0.0
sg384
F0.0
sg385
F0.0
sg386
F0.0
sg387
F0.0
sg388
F0.0
sg389
F0.0
sg390
F0.0
sg391
F0.0
sg392
F0.0
sssg402
I0
sg403
I00
sg404
g799
sg405
I0
sg406
g407
sbsg408
(lp845
g410
ag309
ag411
ag412
asg406
g407
sg413
g830
sg414
g415
sg329
S'/Users/jesse/Workspace/School/MastersThesis/Program/output//Convex-Opt-dream410-MCZ-ConvOpt-PositivePrior-Medium--2012-02-02_23.54.50//ConvOpt_T-0.04//log/'
p846
sbsg569
I5
sg24
g570
sba(iJobManager
Job
p847
(dp848
g3
g4
sg5
(iconvex_optimization
ConvexOptimization
p849
(dp850
g8
(lp851
(lp852
F0.0019340318769280884
aF-0.0
aF0.0
aF-0.0
aF-0.012235132610925348
aF-0.0
aF-0.0
aF-0.0
aF-0.0
aF-0.0
aa(lp853
F0.0
aF0.0
aF-0.0
aF-0.0
aF-0.0
aF0.0
aF-0.0
aF-0.0
aF0.0
aF-0.0
aa(lp854
F-0.0
aF-0.0
aF0.0
aF0.0
aF0.0
aF-0.0
aF-0.0
aF-0.0
aF-0.0
aF-0.0
aa(lp855
F-0.0
aF-0.0
aF-0.0
aF0.0
aF-0.0
aF-0.0
aF-0.0
aF0.0
aF0.0
aF-0.0
aa(lp856
F-0.0
aF0.0
aF-0.0
aF-0.0
aF0.0
aF0.0
aF-0.0
aF0.0
aF0.0
aF-0.0
aa(lp857
F-0.0
aF-0.0
aF-0.0
aF-0.0
aF0.0
aF0.0
aF0.0
aF-0.0
aF-0.0
aF-0.0
aa(lp858
F0.0
aF0.0
aF0.0
aF-0.0
aF0.0
aF-0.0
aF0.0
aF-0.0
aF-0.0
aF0.0
aa(lp859
F-0.0
aF-0.0
aF-0.0
aF-0.0
aF-0.0
aF-0.0
aF0.0
aF0.0
aF0.0
aF-0.0
aa(lp860
F-0.0
aF-0.0
aF-0.0
aF-0.0
aF-0.0
aF-0.0
aF-0.0
aF-0.0
aF0.0
aF0.0
aa(lp861
F-0.0
aF-0.0
aF-0.0
aF0.0
aF-0.0
aF0.0
aF-0.0
aF0.0
aF-0.0
aF0.0
aasg20
S'/Users/jesse/Workspace/School/MastersThesis/Program/output//Convex-Opt-dream410-MCZ-ConvOpt-PositivePrior-Medium--2012-02-02_23.54.50//ConvOpt_T-0.05//data/'
p862
sg22
S'ConvOpt_T-0.05'
p863
sg24
(dp864
g26
(dp865
g28
g29
sg30
g31
ssg32
(dp866
g34
g35
ssg36
(dp867
g38
g39
ssg40
(dp868
g42
g43
ssg44
(dp869
g46
g47
ssg48
(dp870
g50
g51
sg52
g53
sg54
g55
sg56
g57
sg58
I50
sg59
g60
sg61
g62
sg63
g64
sg65
g66
sg67
g68
sg69
g70
sg71
g72
sg73
g74
sg75
g76
sg77
I50
sg78
g79
sg80
g81
sg82
g83
sg84
g85
sg86
g87
sg88
g89
sg90
g91
sg92
g93
sg94
g95
sg96
I50
sg97
g98
sg99
g100
sg101
g102
sg103
g104
sg105
g106
sg107
g108
sg109
g110
sg111
g112
sg113
g114
sg115
I3
sg116
g117
sg118
g119
sg120
I50
sg121
I50
sg122
g123
sg124
g125
sg126
g127
sg128
g129
sg130
g131
sg132
g133
sg134
g135
sg136
I50
sg137
g138
sg139
g140
sg141
g142
sg143
g144
sg145
I30
sg146
g147
sg148
g149
sg150
g151
sg152
g153
sg154
g155
sg156
g157
sg158
g159
sg160
g161
sg162
g163
sg164
g165
sg166
g167
sg168
g169
sg170
g171
sg172
g173
sg174
I50
sg175
g176
sg177
g178
sg179
g180
sg181
g182
sg183
g184
sg185
I50
sg186
g187
sg188
g189
sg190
g191
sg192
g193
sg194
I50
sg195
g196
sg197
g198
sg199
g200
sg201
I50
sg202
g203
sg204
g205
sg206
g207
sg208
g209
sg210
I30
sg211
g212
sg213
g214
sg215
g216
sg217
I50
sg218
g219
sg220
g221
sg222
g223
sg224
g225
sg226
g227
sg228
g229
sg230
g231
sg232
g233
sg234
g235
sg236
g237
sg238
g239
sg240
g241
sg242
g243
sg244
g245
sg246
g247
sg248
I50
sg249
g250
sg251
g252
sg253
g254
sg255
g256
sg257
g258
sg259
g260
sg261
g262
sg263
g264
sg265
g266
sg267
g268
sg269
g270
sg271
g272
sg273
I50
sg274
g275
sg276
g277
sg278
g279
sg280
g281
sg282
g283
sg284
I50
sg285
g286
sg287
g288
sg289
I50
sg290
I50
sg291
g292
ssg293
(dp871
g295
g296
ssg297
(dp872
g299
g300
ssg301
(dp873
g303
g304
sg305
g306
sg20
g307
sg22
g308
sg309
g310
sg311
F0.09
sg312
F0.75
sg313
g314
sg315
g316
sg317
g318
sg319
I10
sg320
g321
sg322
g323
sg324
g306
sg325
g326
sg327
g328
sg329
g330
ssg331
(dp874
g333
I10
sg334
g335
ssg336
(dp875
g338
g339
sg340
I10
sg341
I2
sg342
I1
sg343
(lp876
I1
aI3
asg345
g346
sg347
I3
sg348
(lp877
F0.0001
aF0.1
asg350
(lp878
F0.001
aF0.2
asg352
I1
sg353
I1
sg354
g355
sg356
g357
sg358
g359
ssg360
(dp879
g362
g363
ssg364
(dp880
g366
g367
sg368
g369
sssg370
S'matlab -nodesktop -nodisplay -nosplash -r "addpath(genpath(\'./\'));try;run_convex_optimization, catch err, err, end, exit"'
p881
sg372
g373
sg374
Nsg257
S'/Users/jesse/Workspace/School/MastersThesis/Program/output//Convex-Opt-dream410-MCZ-ConvOpt-PositivePrior-Medium--2012-02-02_23.54.50//ConvOpt_T-0.05//convex_optimization_program/'
p882
sg315
S'/Users/jesse/Workspace/School/MastersThesis/Program/output//Convex-Opt-dream410-MCZ-ConvOpt-PositivePrior-Medium--2012-02-02_23.54.50//ConvOpt_T-0.05/'
p883
sg377
(iNetwork
Network
p884
(dp885
g380
I00
sg377
(dp886
g382
(dp887
g382
F0.0
sg384
F0.0
sg385
F0.0
sg386
F0.0
sg387
F0.0
sg388
F0.0
sg389
F0.0
sg390
F0.0
sg391
F0.0
sg392
F0.0
ssg384
(dp888
g382
F0.0
sg384
F0.0
sg385
F0.0
sg386
F0.0
sg387
F0.0
sg388
F0.0
sg389
F0.0
sg390
F0.0
sg391
F0.0
sg392
F0.0
ssg385
(dp889
g382
F0.0
sg384
F0.0
sg385
F0.0
sg386
F0.0
sg387
F0.0
sg388
F0.0
sg389
F0.0
sg390
F0.0
sg391
F0.0
sg392
F0.0
ssg386
(dp890
g382
F0.0
sg384
F0.0
sg385
F0.0
sg386
F0.0
sg387
F0.0
sg388
F0.0
sg389
F0.0
sg390
F0.0
sg391
F0.0
sg392
F0.0
ssg387
(dp891
g382
F0.0
sg384
F0.0
sg385
F0.0
sg386
F0.0
sg387
F0.0
sg388
F0.0
sg389
F0.0
sg390
F0.0
sg391
F0.0
sg392
F0.0
ssg388
(dp892
g382
F0.0
sg384
F0.0
sg385
F0.0
sg386
F0.0
sg387
F0.0
sg388
F0.0
sg389
F0.0
sg390
F0.0
sg391
F0.0
sg392
F0.0
ssg389
(dp893
g382
F0.0
sg384
F0.0
sg385
F0.012235132610925348
sg386
F0.0
sg387
F0.0
sg388
F0.0
sg389
F0.0019340318769280884
sg390
F0.0
sg391
F0.0
sg392
F0.0
ssg390
(dp894
g382
F0.0
sg384
F0.0
sg385
F0.0
sg386
F0.0
sg387
F0.0
sg388
F0.0
sg389
F0.0
sg390
F0.0
sg391
F0.0
sg392
F0.0
ssg391
(dp895
g382
F0.0
sg384
F0.0
sg385
F0.0
sg386
F0.0
sg387
F0.0
sg388
F0.0
sg389
F0.0
sg390
F0.0
sg391
F0.0
sg392
F0.0
ssg392
(dp896
g382
F0.0
sg384
F0.0
sg385
F0.0
sg386
F0.0
sg387
F0.0
sg388
F0.0
sg389
F0.0
sg390
F0.0
sg391
F0.0
sg392
F0.0
sssg402
I0
sg403
I00
sg404
g851
sg405
I0
sg406
g407
sbsg408
(lp897
g410
ag309
ag411
ag412
asg406
g407
sg413
g882
sg414
g415
sg329
S'/Users/jesse/Workspace/School/MastersThesis/Program/output//Convex-Opt-dream410-MCZ-ConvOpt-PositivePrior-Medium--2012-02-02_23.54.50//ConvOpt_T-0.05//log/'
p898
sbsg569
I6
sg24
g570
sba(iJobManager
Job
p899
(dp900
g3
g4
sg5
(iconvex_optimization
ConvexOptimization
p901
(dp902
g8
(lp903
(lp904
F-0.0010175447348927946
aF-0.0
aF-0.0
aF-0.0
aF-0.0
aF-0.0
aF-0.0
aF-0.0
aF0.0
aF-0.0
aa(lp905
F0.0
aF-0.0010035431124748584
aF0.0
aF0.0
aF0.0
aF0.0
aF0.0
aF-0.0
aF0.0
aF0.0
aa(lp906
F0.0
aF-0.0
aF-0.0010022943395568973
aF0.0
aF0.0
aF0.0
aF0.0
aF0.0
aF0.0
aF0.0
aa(lp907
F0.0
aF-0.0
aF-0.0
aF-0.0010063568196727601
aF0.0
aF0.0
aF0.0
aF0.0
aF0.0
aF-0.0
aa(lp908
F0.0
aF-0.0
aF-0.0
aF-0.0
aF-0.0010052518758101314
aF-0.0
aF0.0
aF-0.0
aF-0.0
aF-0.0
aa(lp909
F0.0
aF-0.0
aF-0.0
aF-0.0
aF0.0
aF-0.0010036009850296068
aF0.0
aF0.0
aF0.0
aF0.0
aa(lp910
F0.0
aF-0.0
aF-0.0
aF-0.0
aF0.0
aF-0.0
aF-0.0
aF-0.0
aF0.0
aF-0.0
aa(lp911
F0.0
aF0.0
aF-0.0
aF-0.0
aF0.0
aF-0.0
aF0.0
aF-0.0
aF0.0
aF0.0
aa(lp912
F0.0
aF-0.0
aF-0.0
aF-0.0
aF0.0
aF-0.0
aF-0.0
aF-0.0
aF-0.001003624340398801
aF0.0
aa(lp913
F0.0
aF-0.0
aF-0.0
aF0.0
aF0.0
aF-0.0
aF0.0
aF0.0
aF-0.0
aF-0.0
aasg20
S'/Users/jesse/Workspace/School/MastersThesis/Program/output//Convex-Opt-dream410-MCZ-ConvOpt-PositivePrior-Medium--2012-02-02_23.54.50//ConvOpt_T-0.06//data/'
p914
sg22
S'ConvOpt_T-0.06'
p915
sg24
(dp916
g26
(dp917
g28
g29
sg30
g31
ssg32
(dp918
g34
g35
ssg36
(dp919
g38
g39
ssg40
(dp920
g42
g43
ssg44
(dp921
g46
g47
ssg48
(dp922
g50
g51
sg52
g53
sg54
g55
sg56
g57
sg58
I50
sg59
g60
sg61
g62
sg63
g64
sg65
g66
sg67
g68
sg69
g70
sg71
g72
sg73
g74
sg75
g76
sg77
I50
sg78
g79
sg80
g81
sg82
g83
sg84
g85
sg86
g87
sg88
g89
sg90
g91
sg92
g93
sg94
g95
sg96
I50
sg97
g98
sg99
g100
sg101
g102
sg103
g104
sg105
g106
sg107
g108
sg109
g110
sg111
g112
sg113
g114
sg115
I3
sg116
g117
sg118
g119
sg120
I50
sg121
I50
sg122
g123
sg124
g125
sg126
g127
sg128
g129
sg130
g131
sg132
g133
sg134
g135
sg136
I50
sg137
g138
sg139
g140
sg141
g142
sg143
g144
sg145
I30
sg146
g147
sg148
g149
sg150
g151
sg152
g153
sg154
g155
sg156
g157
sg158
g159
sg160
g161
sg162
g163
sg164
g165
sg166
g167
sg168
g169
sg170
g171
sg172
g173
sg174
I50
sg175
g176
sg177
g178
sg179
g180
sg181
g182
sg183
g184
sg185
I50
sg186
g187
sg188
g189
sg190
g191
sg192
g193
sg194
I50
sg195
g196
sg197
g198
sg199
g200
sg201
I50
sg202
g203
sg204
g205
sg206
g207
sg208
g209
sg210
I30
sg211
g212
sg213
g214
sg215
g216
sg217
I50
sg218
g219
sg220
g221
sg222
g223
sg224
g225
sg226
g227
sg228
g229
sg230
g231
sg232
g233
sg234
g235
sg236
g237
sg238
g239
sg240
g241
sg242
g243
sg244
g245
sg246
g247
sg248
I50
sg249
g250
sg251
g252
sg253
g254
sg255
g256
sg257
g258
sg259
g260
sg261
g262
sg263
g264
sg265
g266
sg267
g268
sg269
g270
sg271
g272
sg273
I50
sg274
g275
sg276
g277
sg278
g279
sg280
g281
sg282
g283
sg284
I50
sg285
g286
sg287
g288
sg289
I50
sg290
I50
sg291
g292
ssg293
(dp923
g295
g296
ssg297
(dp924
g299
g300
ssg301
(dp925
g303
g304
sg305
g306
sg20
g307
sg22
g308
sg309
g310
sg311
F0.09
sg312
F0.75
sg313
g314
sg315
g316
sg317
g318
sg319
I10
sg320
g321
sg322
g323
sg324
g306
sg325
g326
sg327
g328
sg329
g330
ssg331
(dp926
g333
I10
sg334
g335
ssg336
(dp927
g338
g339
sg340
I10
sg341
I2
sg342
I1
sg343
(lp928
I1
aI3
asg345
g346
sg347
I3
sg348
(lp929
F0.0001
aF0.1
asg350
(lp930
F0.001
aF0.2
asg352
I1
sg353
I1
sg354
g355
sg356
g357
sg358
g359
ssg360
(dp931
g362
g363
ssg364
(dp932
g366
g367
sg368
g369
sssg370
S'matlab -nodesktop -nodisplay -nosplash -r "addpath(genpath(\'./\'));try;run_convex_optimization, catch err, err, end, exit"'
p933
sg372
g373
sg374
Nsg257
S'/Users/jesse/Workspace/School/MastersThesis/Program/output//Convex-Opt-dream410-MCZ-ConvOpt-PositivePrior-Medium--2012-02-02_23.54.50//ConvOpt_T-0.06//convex_optimization_program/'
p934
sg315
S'/Users/jesse/Workspace/School/MastersThesis/Program/output//Convex-Opt-dream410-MCZ-ConvOpt-PositivePrior-Medium--2012-02-02_23.54.50//ConvOpt_T-0.06/'
p935
sg377
(iNetwork
Network
p936
(dp937
g380
I00
sg377
(dp938
g382
(dp939
g382
F0.0
sg384
F0.0
sg385
F0.0
sg386
F0.0
sg387
F0.0
sg388
F0.0
sg389
F0.0
sg390
F0.0
sg391
F0.0
sg392
F0.0
ssg384
(dp940
g382
F0.0
sg384
F0.0010036009850296068
sg385
F0.0
sg386
F0.0
sg387
F0.0
sg388
F0.0
sg389
F0.0
sg390
F0.0
sg391
F0.0
sg392
F0.0
ssg385
(dp941
g382
F0.0
sg384
F0.0
sg385
F0.0010052518758101314
sg386
F0.0
sg387
F0.0
sg388
F0.0
sg389
F0.0
sg390
F0.0
sg391
F0.0
sg392
F0.0
ssg386
(dp942
g382
F0.0
sg384
F0.0
sg385
F0.0
sg386
F0.0010063568196727601
sg387
F0.0
sg388
F0.0
sg389
F0.0
sg390
F0.0
sg391
F0.0
sg392
F0.0
ssg387
(dp943
g382
F0.0
sg384
F0.0
sg385
F0.0
sg386
F0.0
sg387
F0.0010022943395568973
sg388
F0.0
sg389
F0.0
sg390
F0.0
sg391
F0.0
sg392
F0.0
ssg388
(dp944
g382
F0.0
sg384
F0.0
sg385
F0.0
sg386
F0.0
sg387
F0.0
sg388
F0.0010035431124748584
sg389
F0.0
sg390
F0.0
sg391
F0.0
sg392
F0.0
ssg389
(dp945
g382
F0.0
sg384
F0.0
sg385
F0.0
sg386
F0.0
sg387
F0.0
sg388
F0.0
sg389
F0.0010175447348927946
sg390
F0.0
sg391
F0.0
sg392
F0.0
ssg390
(dp946
g382
F0.0
sg384
F0.0
sg385
F0.0
sg386
F0.0
sg387
F0.0
sg388
F0.0
sg389
F0.0
sg390
F0.001003624340398801
sg391
F0.0
sg392
F0.0
ssg391
(dp947
g382
F0.0
sg384
F0.0
sg385
F0.0
sg386
F0.0
sg387
F0.0
sg388
F0.0
sg389
F0.0
sg390
F0.0
sg391
F0.0
sg392
F0.0
ssg392
(dp948
g382
F0.0
sg384
F0.0
sg385
F0.0
sg386
F0.0
sg387
F0.0
sg388
F0.0
sg389
F0.0
sg390
F0.0
sg391
F0.0
sg392
F0.0
sssg402
I0
sg403
I00
sg404
g903
sg405
I0
sg406
g407
sbsg408
(lp949
g410
ag309
ag411
ag412
asg406
g407
sg413
g934
sg414
g415
sg329
S'/Users/jesse/Workspace/School/MastersThesis/Program/output//Convex-Opt-dream410-MCZ-ConvOpt-PositivePrior-Medium--2012-02-02_23.54.50//ConvOpt_T-0.06//log/'
p950
sbsg569
I7
sg24
g570
sba(iJobManager
Job
p951
(dp952
g3
g4
sg5
(iconvex_optimization
ConvexOptimization
p953
(dp954
g8
(lp955
(lp956
F-0.0010175509560781393
aF-0.0
aF-0.0
aF-0.0
aF-0.0
aF-0.0
aF-0.0
aF-0.0
aF0.0
aF-0.0
aa(lp957
F0.0
aF-0.001006391050097477
aF0.0
aF0.0
aF0.0
aF0.0
aF0.0
aF0.0
aF0.0
aF0.0
aa(lp958
F0.0
aF0.0
aF-0.0010054359374152
aF0.0
aF0.0
aF0.0
aF0.0
aF0.0
aF0.0
aF0.0
aa(lp959
F0.0
aF-0.0
aF-0.0
aF-0.0010078920764868826
aF0.0
aF0.0
aF0.0
aF0.0
aF0.0
aF0.0
aa(lp960
F0.0
aF-0.0
aF-0.0
aF-0.0
aF-0.001008887200953268
aF-0.0
aF0.0
aF-0.0
aF-0.0
aF-0.0
aa(lp961
F0.0
aF-0.0
aF-0.0
aF-0.0
aF0.0
aF-0.0010065467816389173
aF0.0
aF0.0
aF0.0
aF0.0
aa(lp962
F0.0
aF-0.0
aF-0.0
aF-0.0
aF0.0
aF-0.0
aF-0.0010025593714715342
aF-0.0
aF0.0
aF-0.0
aa(lp963
F0.0
aF-0.0
aF-0.0
aF-0.0
aF0.0
aF-0.0
aF0.0
aF-0.0
aF0.0
aF0.0
aa(lp964
F0.0
aF-0.0
aF-0.0
aF-0.0
aF0.0
aF-0.0
aF-0.0
aF-0.0
aF-0.0010055054248283568
aF0.0
aa(lp965
F0.0
aF-0.0
aF-0.0
aF-0.0
aF0.0
aF-0.0
aF0.0
aF-0.0
aF-0.0
aF-0.0
aasg20
S'/Users/jesse/Workspace/School/MastersThesis/Program/output//Convex-Opt-dream410-MCZ-ConvOpt-PositivePrior-Medium--2012-02-02_23.54.50//ConvOpt_T-0.08//data/'
p966
sg22
S'ConvOpt_T-0.08'
p967
sg24
(dp968
g26
(dp969
g28
g29
sg30
g31
ssg32
(dp970
g34
g35
ssg36
(dp971
g38
g39
ssg40
(dp972
g42
g43
ssg44
(dp973
g46
g47
ssg48
(dp974
g50
g51
sg52
g53
sg54
g55
sg56
g57
sg58
I50
sg59
g60
sg61
g62
sg63
g64
sg65
g66
sg67
g68
sg69
g70
sg71
g72
sg73
g74
sg75
g76
sg77
I50
sg78
g79
sg80
g81
sg82
g83
sg84
g85
sg86
g87
sg88
g89
sg90
g91
sg92
g93
sg94
g95
sg96
I50
sg97
g98
sg99
g100
sg101
g102
sg103
g104
sg105
g106
sg107
g108
sg109
g110
sg111
g112
sg113
g114
sg115
I3
sg116
g117
sg118
g119
sg120
I50
sg121
I50
sg122
g123
sg124
g125
sg126
g127
sg128
g129
sg130
g131
sg132
g133
sg134
g135
sg136
I50
sg137
g138
sg139
g140
sg141
g142
sg143
g144
sg145
I30
sg146
g147
sg148
g149
sg150
g151
sg152
g153
sg154
g155
sg156
g157
sg158
g159
sg160
g161
sg162
g163
sg164
g165
sg166
g167
sg168
g169
sg170
g171
sg172
g173
sg174
I50
sg175
g176
sg177
g178
sg179
g180
sg181
g182
sg183
g184
sg185
I50
sg186
g187
sg188
g189
sg190
g191
sg192
g193
sg194
I50
sg195
g196
sg197
g198
sg199
g200
sg201
I50
sg202
g203
sg204
g205
sg206
g207
sg208
g209
sg210
I30
sg211
g212
sg213
g214
sg215
g216
sg217
I50
sg218
g219
sg220
g221
sg222
g223
sg224
g225
sg226
g227
sg228
g229
sg230
g231
sg232
g233
sg234
g235
sg236
g237
sg238
g239
sg240
g241
sg242
g243
sg244
g245
sg246
g247
sg248
I50
sg249
g250
sg251
g252
sg253
g254
sg255
g256
sg257
g258
sg259
g260
sg261
g262
sg263
g264
sg265
g266
sg267
g268
sg269
g270
sg271
g272
sg273
I50
sg274
g275
sg276
g277
sg278
g279
sg280
g281
sg282
g283
sg284
I50
sg285
g286
sg287
g288
sg289
I50
sg290
I50
sg291
g292
ssg293
(dp975
g295
g296
ssg297
(dp976
g299
g300
ssg301
(dp977
g303
g304
sg305
g306
sg20
g307
sg22
g308
sg309
g310
sg311
F0.09
sg312
F0.75
sg313
g314
sg315
g316
sg317
g318
sg319
I10
sg320
g321
sg322
g323
sg324
g306
sg325
g326
sg327
g328
sg329
g330
ssg331
(dp978
g333
I10
sg334
g335
ssg336
(dp979
g338
g339
sg340
I10
sg341
I2
sg342
I1
sg343
(lp980
I1
aI3
asg345
g346
sg347
I3
sg348
(lp981
F0.0001
aF0.1
asg350
(lp982
F0.001
aF0.2
asg352
I1
sg353
I1
sg354
g355
sg356
g357
sg358
g359
ssg360
(dp983
g362
g363
ssg364
(dp984
g366
g367
sg368
g369
sssg370
S'matlab -nodesktop -nodisplay -nosplash -r "addpath(genpath(\'./\'));try;run_convex_optimization, catch err, err, end, exit"'
p985
sg372
g373
sg374
Nsg257
S'/Users/jesse/Workspace/School/MastersThesis/Program/output//Convex-Opt-dream410-MCZ-ConvOpt-PositivePrior-Medium--2012-02-02_23.54.50//ConvOpt_T-0.08//convex_optimization_program/'
p986
sg315
S'/Users/jesse/Workspace/School/MastersThesis/Program/output//Convex-Opt-dream410-MCZ-ConvOpt-PositivePrior-Medium--2012-02-02_23.54.50//ConvOpt_T-0.08/'
p987
sg377
(iNetwork
Network
p988
(dp989
g380
I00
sg377
(dp990
g382
(dp991
g382
F0.0010025593714715342
sg384
F0.0
sg385
F0.0
sg386
F0.0
sg387
F0.0
sg388
F0.0
sg389
F0.0
sg390
F0.0
sg391
F0.0
sg392
F0.0
ssg384
(dp992
g382
F0.0
sg384
F0.0010065467816389173
sg385
F0.0
sg386
F0.0
sg387
F0.0
sg388
F0.0
sg389
F0.0
sg390
F0.0
sg391
F0.0
sg392
F0.0
ssg385
(dp993
g382
F0.0
sg384
F0.0
sg385
F0.001008887200953268
sg386
F0.0
sg387
F0.0
sg388
F0.0
sg389
F0.0
sg390
F0.0
sg391
F0.0
sg392
F0.0
ssg386
(dp994
g382
F0.0
sg384
F0.0
sg385
F0.0
sg386
F0.0010078920764868826
sg387
F0.0
sg388
F0.0
sg389
F0.0
sg390
F0.0
sg391
F0.0
sg392
F0.0
ssg387
(dp995
g382
F0.0
sg384
F0.0
sg385
F0.0
sg386
F0.0
sg387
F0.0010054359374152
sg388
F0.0
sg389
F0.0
sg390
F0.0
sg391
F0.0
sg392
F0.0
ssg388
(dp996
g382
F0.0
sg384
F0.0
sg385
F0.0
sg386
F0.0
sg387
F0.0
sg388
F0.001006391050097477
sg389
F0.0
sg390
F0.0
sg391
F0.0
sg392
F0.0
ssg389
(dp997
g382
F0.0
sg384
F0.0
sg385
F0.0
sg386
F0.0
sg387
F0.0
sg388
F0.0
sg389
F0.0010175509560781393
sg390
F0.0
sg391
F0.0
sg392
F0.0
ssg390
(dp998
g382
F0.0
sg384
F0.0
sg385
F0.0
sg386
F0.0
sg387
F0.0
sg388
F0.0
sg389
F0.0
sg390
F0.0010055054248283568
sg391
F0.0
sg392
F0.0
ssg391
(dp999
g382
F0.0
sg384
F0.0
sg385
F0.0
sg386
F0.0
sg387
F0.0
sg388
F0.0
sg389
F0.0
sg390
F0.0
sg391
F0.0
sg392
F0.0
ssg392
(dp1000
g382
F0.0
sg384
F0.0
sg385
F0.0
sg386
F0.0
sg387
F0.0
sg388
F0.0
sg389
F0.0
sg390
F0.0
sg391
F0.0
sg392
F0.0
sssg402
I0
sg403
I00
sg404
g955
sg405
I0
sg406
g407
sbsg408
(lp1001
g410
ag309
ag411
ag412
asg406
g407
sg413
g986
sg414
g415
sg329
S'/Users/jesse/Workspace/School/MastersThesis/Program/output//Convex-Opt-dream410-MCZ-ConvOpt-PositivePrior-Medium--2012-02-02_23.54.50//ConvOpt_T-0.08//log/'
p1002
sbsg569
I9
sg24
g570
sba(iJobManager
Job
p1003
(dp1004
g3
g4
sg5
(iconvex_optimization
ConvexOptimization
p1005
(dp1006
g8
(lp1007
(lp1008
F-0.0010165265761798992
aF-0.0
aF-0.0
aF-0.0
aF-0.0
aF-0.0
aF-0.0
aF-0.0
aF0.0
aF-0.0
aa(lp1009
F0.0
aF-0.0010046840767188314
aF0.0
aF0.0
aF0.0
aF0.0
aF0.0
aF0.0
aF0.0
aF0.0
aa(lp1010
F0.0
aF-0.0
aF-0.0010040103087902708
aF0.0
aF0.0
aF0.0
aF0.0
aF0.0
aF0.0
aF0.0
aa(lp1011
F0.0
aF-0.0
aF-0.0
aF-0.0010068825832405537
aF0.0
aF0.0
aF0.0
aF0.0
aF0.0
aF-0.0
aa(lp1012
F0.0
aF-0.0
aF-0.0
aF-0.0
aF-0.0010061100179683535
aF-0.0
aF0.0
aF-0.0
aF-0.0
aF-0.0
aa(lp1013
F0.0
aF-0.0
aF-0.0
aF-0.0
aF0.0
aF-0.0010050663870089238
aF0.0
aF0.0
aF0.0
aF0.0
aa(lp1014
F0.0
aF-0.0
aF-0.0
aF-0.0
aF0.0
aF-0.0
aF-0.001001177357309757
aF-0.0
aF0.0
aF-0.0
aa(lp1015
F0.0
aF-0.0
aF-0.0
aF-0.0
aF0.0
aF-0.0
aF0.0
aF-0.0
aF0.0
aF0.0
aa(lp1016
F-0.0
aF-0.0
aF-0.0
aF-0.0
aF0.0
aF-0.0
aF-0.0
aF-0.0
aF-0.0010048527743720115
aF0.0
aa(lp1017
F0.0
aF-0.0
aF-0.0
aF0.0
aF0.0
aF-0.0
aF0.0
aF0.0
aF-0.0
aF-0.0
aasg20
S'/Users/jesse/Workspace/School/MastersThesis/Program/output//Convex-Opt-dream410-MCZ-ConvOpt-PositivePrior-Medium--2012-02-02_23.54.50//ConvOpt_T-0.07//data/'
p1018
sg22
S'ConvOpt_T-0.07'
p1019
sg24
(dp1020
g26
(dp1021
g28
g29
sg30
g31
ssg32
(dp1022
g34
g35
ssg36
(dp1023
g38
g39
ssg40
(dp1024
g42
g43
ssg44
(dp1025
g46
g47
ssg48
(dp1026
g50
g51
sg52
g53
sg54
g55
sg56
g57
sg58
I50
sg59
g60
sg61
g62
sg63
g64
sg65
g66
sg67
g68
sg69
g70
sg71
g72
sg73
g74
sg75
g76
sg77
I50
sg78
g79
sg80
g81
sg82
g83
sg84
g85
sg86
g87
sg88
g89
sg90
g91
sg92
g93
sg94
g95
sg96
I50
sg97
g98
sg99
g100
sg101
g102
sg103
g104
sg105
g106
sg107
g108
sg109
g110
sg111
g112
sg113
g114
sg115
I3
sg116
g117
sg118
g119
sg120
I50
sg121
I50
sg122
g123
sg124
g125
sg126
g127
sg128
g129
sg130
g131
sg132
g133
sg134
g135
sg136
I50
sg137
g138
sg139
g140
sg141
g142
sg143
g144
sg145
I30
sg146
g147
sg148
g149
sg150
g151
sg152
g153
sg154
g155
sg156
g157
sg158
g159
sg160
g161
sg162
g163
sg164
g165
sg166
g167
sg168
g169
sg170
g171
sg172
g173
sg174
I50
sg175
g176
sg177
g178
sg179
g180
sg181
g182
sg183
g184
sg185
I50
sg186
g187
sg188
g189
sg190
g191
sg192
g193
sg194
I50
sg195
g196
sg197
g198
sg199
g200
sg201
I50
sg202
g203
sg204
g205
sg206
g207
sg208
g209
sg210
I30
sg211
g212
sg213
g214
sg215
g216
sg217
I50
sg218
g219
sg220
g221
sg222
g223
sg224
g225
sg226
g227
sg228
g229
sg230
g231
sg232
g233
sg234
g235
sg236
g237
sg238
g239
sg240
g241
sg242
g243
sg244
g245
sg246
g247
sg248
I50
sg249
g250
sg251
g252
sg253
g254
sg255
g256
sg257
g258
sg259
g260
sg261
g262
sg263
g264
sg265
g266
sg267
g268
sg269
g270
sg271
g272
sg273
I50
sg274
g275
sg276
g277
sg278
g279
sg280
g281
sg282
g283
sg284
I50
sg285
g286
sg287
g288
sg289
I50
sg290
I50
sg291
g292
ssg293
(dp1027
g295
g296
ssg297
(dp1028
g299
g300
ssg301
(dp1029
g303
g304
sg305
g306
sg20
g307
sg22
g308
sg309
g310
sg311
F0.09
sg312
F0.75
sg313
g314
sg315
g316
sg317
g318
sg319
I10
sg320
g321
sg322
g323
sg324
g306
sg325
g326
sg327
g328
sg329
g330
ssg331
(dp1030
g333
I10
sg334
g335
ssg336
(dp1031
g338
g339
sg340
I10
sg341
I2
sg342
I1
sg343
(lp1032
I1
aI3
asg345
g346
sg347
I3
sg348
(lp1033
F0.0001
aF0.1
asg350
(lp1034
F0.001
aF0.2
asg352
I1
sg353
I1
sg354
g355
sg356
g357
sg358
g359
ssg360
(dp1035
g362
g363
ssg364
(dp1036
g366
g367
sg368
g369
sssg370
S'matlab -nodesktop -nodisplay -nosplash -r "addpath(genpath(\'./\'));try;run_convex_optimization, catch err, err, end, exit"'
p1037
sg372
g373
sg374
Nsg257
S'/Users/jesse/Workspace/School/MastersThesis/Program/output//Convex-Opt-dream410-MCZ-ConvOpt-PositivePrior-Medium--2012-02-02_23.54.50//ConvOpt_T-0.07//convex_optimization_program/'
p1038
sg315
S'/Users/jesse/Workspace/School/MastersThesis/Program/output//Convex-Opt-dream410-MCZ-ConvOpt-PositivePrior-Medium--2012-02-02_23.54.50//ConvOpt_T-0.07/'
p1039
sg377
(iNetwork
Network
p1040
(dp1041
g380
I00
sg377
(dp1042
g382
(dp1043
g382
F0.001001177357309757
sg384
F0.0
sg385
F0.0
sg386
F0.0
sg387
F0.0
sg388
F0.0
sg389
F0.0
sg390
F0.0
sg391
F0.0
sg392
F0.0
ssg384
(dp1044
g382
F0.0
sg384
F0.0010050663870089238
sg385
F0.0
sg386
F0.0
sg387
F0.0
sg388
F0.0
sg389
F0.0
sg390
F0.0
sg391
F0.0
sg392
F0.0
ssg385
(dp1045
g382
F0.0
sg384
F0.0
sg385
F0.0010061100179683535
sg386
F0.0
sg387
F0.0
sg388
F0.0
sg389
F0.0
sg390
F0.0
sg391
F0.0
sg392
F0.0
ssg386
(dp1046
g382
F0.0
sg384
F0.0
sg385
F0.0
sg386
F0.0010068825832405537
sg387
F0.0
sg388
F0.0
sg389
F0.0
sg390
F0.0
sg391
F0.0
sg392
F0.0
ssg387
(dp1047
g382
F0.0
sg384
F0.0
sg385
F0.0
sg386
F0.0
sg387
F0.0010040103087902708
sg388
F0.0
sg389
F0.0
sg390
F0.0
sg391
F0.0
sg392
F0.0
ssg388
(dp1048
g382
F0.0
sg384
F0.0
sg385
F0.0
sg386
F0.0
sg387
F0.0
sg388
F0.0010046840767188314
sg389
F0.0
sg390
F0.0
sg391
F0.0
sg392
F0.0
ssg389
(dp1049
g382
F0.0
sg384
F0.0
sg385
F0.0
sg386
F0.0
sg387
F0.0
sg388
F0.0
sg389
F0.0010165265761798992
sg390
F0.0
sg391
F0.0
sg392
F0.0
ssg390
(dp1050
g382
F0.0
sg384
F0.0
sg385
F0.0
sg386
F0.0
sg387
F0.0
sg388
F0.0
sg389
F0.0
sg390
F0.0010048527743720115
sg391
F0.0
sg392
F0.0
ssg391
(dp1051
g382
F0.0
sg384
F0.0
sg385
F0.0
sg386
F0.0
sg387
F0.0
sg388
F0.0
sg389
F0.0
sg390
F0.0
sg391
F0.0
sg392
F0.0
ssg392
(dp1052
g382
F0.0
sg384
F0.0
sg385
F0.0
sg386
F0.0
sg387
F0.0
sg388
F0.0
sg389
F0.0
sg390
F0.0
sg391
F0.0
sg392
F0.0
sssg402
I0
sg403
I00
sg404
g1007
sg405
I0
sg406
g407
sbsg408
(lp1053
g410
ag309
ag411
ag412
asg406
g407
sg413
g1038
sg414
g415
sg329
S'/Users/jesse/Workspace/School/MastersThesis/Program/output//Convex-Opt-dream410-MCZ-ConvOpt-PositivePrior-Medium--2012-02-02_23.54.50//ConvOpt_T-0.07//log/'
p1054
sbsg569
I8
sg24
g570
sba(iJobManager
Job
p1055
(dp1056
g3
g4
sg5
(iconvex_optimization
ConvexOptimization
p1057
(dp1058
g8
(lp1059
(lp1060
F0.0019219865393296232
aF-0.0
aF0.0
aF-0.0
aF-0.012240710882309713
aF-0.0
aF-0.0
aF-0.0
aF-0.0
aF-0.0
aa(lp1061
F0.0
aF0.0
aF-0.0
aF-0.0
aF0.0
aF0.0
aF-0.0
aF-0.0
aF-0.0
aF-0.0
aa(lp1062
F-0.0
aF0.0
aF0.0
aF0.0
aF0.0
aF-0.0
aF-0.0
aF-0.0
aF-0.0
aF-0.0
aa(lp1063
F-0.0
aF0.0
aF-0.0
aF0.0
aF-0.0
aF-0.0
aF0.0
aF-0.0
aF0.0
aF-0.0
aa(lp1064
F-0.0
aF0.0
aF-0.0
aF-0.0
aF0.0
aF0.0
aF-0.0
aF0.0
aF0.0
aF-0.0
aa(lp1065
F0.0
aF-0.0
aF-0.0
aF-0.0
aF0.0
aF0.0
aF0.0
aF-0.0
aF-0.0
aF-0.0
aa(lp1066
F-0.0
aF0.0
aF0.0
aF0.0
aF0.0
aF-0.0
aF0.0
aF-0.0
aF-0.0
aF-0.0
aa(lp1067
F-0.0
aF-0.0
aF-0.0
aF-0.0
aF-0.0
aF-0.0
aF-0.0
aF0.0
aF-0.0
aF-0.0
aa(lp1068
F-0.0
aF-0.0
aF-0.0
aF-0.0
aF-0.0
aF-0.0
aF-0.0
aF-0.0
aF0.0
aF0.0
aa(lp1069
F-0.0
aF0.0
aF-0.0
aF0.0
aF0.0
aF-0.0
aF-0.0
aF-0.0
aF-0.0
aF0.0
aasg20
g307
sg22
g308
sg24
(dp1070
g26
(dp1071
g28
g29
sg30
g31
ssg32
(dp1072
g34
g35
ssg36
(dp1073
g38
g39
ssg40
(dp1074
g42
g43
ssg44
(dp1075
g46
g47
ssg48
(dp1076
g50
g51
sg52
g53
sg54
g55
sg56
g57
sg58
I50
sg59
g60
sg61
g62
sg63
g64
sg65
g66
sg67
g68
sg69
g70
sg71
g72
sg73
g74
sg75
g76
sg77
I50
sg78
g79
sg80
g81
sg82
g83
sg84
g85
sg86
g87
sg88
g89
sg90
g91
sg92
g93
sg94
g95
sg96
I50
sg97
g98
sg99
g100
sg101
g102
sg103
g104
sg105
g106
sg107
g108
sg109
g110
sg111
g112
sg113
g114
sg115
I3
sg116
g117
sg118
g119
sg120
I50
sg121
I50
sg122
g123
sg124
g125
sg126
g127
sg128
g129
sg130
g131
sg132
g133
sg134
g135
sg136
I50
sg137
g138
sg139
g140
sg141
g142
sg143
g144
sg145
I30
sg146
g147
sg148
g149
sg150
g151
sg152
g153
sg154
g155
sg156
g157
sg158
g159
sg160
g161
sg162
g163
sg164
g165
sg166
g167
sg168
g169
sg170
g171
sg172
g173
sg174
I50
sg175
g176
sg177
g178
sg179
g180
sg181
g182
sg183
g184
sg185
I50
sg186
g187
sg188
g189
sg190
g191
sg192
g193
sg194
I50
sg195
g196
sg197
g198
sg199
g200
sg201
I50
sg202
g203
sg204
g205
sg206
g207
sg208
g209
sg210
I30
sg211
g212
sg213
g214
sg215
g216
sg217
I50
sg218
g219
sg220
g221
sg222
g223
sg224
g225
sg226
g227
sg228
g229
sg230
g231
sg232
g233
sg234
g235
sg236
g237
sg238
g239
sg240
g241
sg242
g243
sg244
g245
sg246
g247
sg248
I50
sg249
g250
sg251
g252
sg253
g254
sg255
g256
sg257
g258
sg259
g260
sg261
g262
sg263
g264
sg265
g266
sg267
g268
sg269
g270
sg271
g272
sg273
I50
sg274
g275
sg276
g277
sg278
g279
sg280
g281
sg282
g283
sg284
I50
sg285
g286
sg287
g288
sg289
I50
sg290
I50
sg291
g292
ssg293
(dp1077
g295
g296
ssg297
(dp1078
g299
g300
ssg301
(dp1079
g303
g304
sg305
g306
sg20
g307
sg22
g308
sg309
g310
sg311
F0.09
sg312
F0.75
sg313
g314
sg315
g316
sg317
g318
sg319
I10
sg320
g321
sg322
g323
sg324
g306
sg325
g326
sg327
g328
sg329
g330
ssg331
(dp1080
g333
I10
sg334
g335
ssg336
(dp1081
g338
g339
sg340
I10
sg341
I2
sg342
I1
sg343
(lp1082
I1
aI3
asg345
g346
sg347
I3
sg348
(lp1083
F0.0001
aF0.1
asg350
(lp1084
F0.001
aF0.2
asg352
I1
sg353
I1
sg354
g355
sg356
g357
sg358
g359
ssg360
(dp1085
g362
g363
ssg364
(dp1086
g366
g367
sg368
g369
sssg370
S'matlab -nodesktop -nodisplay -nosplash -r "addpath(genpath(\'./\'));try;run_convex_optimization, catch err, err, end, exit"'
p1087
sg372
g373
sg374
Nsg257
S'/Users/jesse/Workspace/School/MastersThesis/Program/output//Convex-Opt-dream410-MCZ-ConvOpt-PositivePrior-Medium--2012-02-02_23.54.50//ConvOpt_T-0.09//convex_optimization_program/'
p1088
sg315
g316
sg377
(iNetwork
Network
p1089
(dp1090
g380
I00
sg377
(dp1091
g382
(dp1092
g382
F0.0
sg384
F0.0
sg385
F0.0
sg386
F0.0
sg387
F0.0
sg388
F0.0
sg389
F0.0
sg390
F0.0
sg391
F0.0
sg392
F0.0
ssg384
(dp1093
g382
F0.0
sg384
F0.0
sg385
F0.0
sg386
F0.0
sg387
F0.0
sg388
F0.0
sg389
F0.0
sg390
F0.0
sg391
F0.0
sg392
F0.0
ssg385
(dp1094
g382
F0.0
sg384
F0.0
sg385
F0.0
sg386
F0.0
sg387
F0.0
sg388
F0.0
sg389
F0.0
sg390
F0.0
sg391
F0.0
sg392
F0.0
ssg386
(dp1095
g382
F0.0
sg384
F0.0
sg385
F0.0
sg386
F0.0
sg387
F0.0
sg388
F0.0
sg389
F0.0
sg390
F0.0
sg391
F0.0
sg392
F0.0
ssg387
(dp1096
g382
F0.0
sg384
F0.0
sg385
F0.0
sg386
F0.0
sg387
F0.0
sg388
F0.0
sg389
F0.0
sg390
F0.0
sg391
F0.0
sg392
F0.0
ssg388
(dp1097
g382
F0.0
sg384
F0.0
sg385
F0.0
sg386
F0.0
sg387
F0.0
sg388
F0.0
sg389
F0.0
sg390
F0.0
sg391
F0.0
sg392
F0.0
ssg389
(dp1098
g382
F0.0
sg384
F0.0
sg385
F0.012240710882309713
sg386
F0.0
sg387
F0.0
sg388
F0.0
sg389
F0.0019219865393296232
sg390
F0.0
sg391
F0.0
sg392
F0.0
ssg390
(dp1099
g382
F0.0
sg384
F0.0
sg385
F0.0
sg386
F0.0
sg387
F0.0
sg388
F0.0
sg389
F0.0
sg390
F0.0
sg391
F0.0
sg392
F0.0
ssg391
(dp1100
g382
F0.0
sg384
F0.0
sg385
F0.0
sg386
F0.0
sg387
F0.0
sg388
F0.0
sg389
F0.0
sg390
F0.0
sg391
F0.0
sg392
F0.0
ssg392
(dp1101
g382
F0.0
sg384
F0.0
sg385
F0.0
sg386
F0.0
sg387
F0.0
sg388
F0.0
sg389
F0.0
sg390
F0.0
sg391
F0.0
sg392
F0.0
sssg402
I0
sg403
I00
sg404
g1059
sg405
I0
sg406
g407
sbsg408
(lp1102
g410
ag309
ag411
ag412
asg406
g407
sg413
g1088
sg414
g415
sg329
g330
sbsg569
I10
sg24
g570
sba(lp1103
(g23
(dp1104
S'tn'
p1105
I14
sS'fp'
p1106
I71
sS'fn'
p1107
I3
sS'specificity'
p1108
F0.16470588235294117
sS'recall'
p1109
F0.8
sS'sensitivity'
p1110
F0.8
sS'precision'
p1111
F0.14457831325301204
sS'tp'
p1112
I12
sS'accuracy'
p1113
F0.26
stp1114
a(g603
(dp1115
g1105
I25
sg1106
I60
sg1107
I5
sg1108
F0.29411764705882354
sg1109
F0.6666666666666666
sg1110
F0.6666666666666666
sg1111
F0.14285714285714285
sg1112
I10
sg1113
F0.35
stp1116
a(g655
(dp1117
g1105
I62
sg1106
I23
sg1107
I5
sg1108
F0.7294117647058823
sg1109
F0.6666666666666666
sg1110
F0.6666666666666666
sg1111
F0.30303030303030304
sg1112
I10
sg1113
F0.72
stp1118
a(g707
(dp1119
g1105
I28
sg1106
I57
sg1107
I4
sg1108
F0.32941176470588235
sg1109
F0.7333333333333333
sg1110
F0.7333333333333333
sg1111
F0.16176470588235295
sg1112
I11
sg1113
F0.39
stp1120
a(g759
(dp1121
g1105
I67
sg1106
I18
sg1107
I10
sg1108
F0.788235294117647
sg1109
F0.3333333333333333
sg1110
F0.3333333333333333
sg1111
F0.21739130434782608
sg1112
I5
sg1113
F0.72
stp1122
a(g811
(dp1123
g1105
I79
sg1106
I6
sg1107
I12
sg1108
F0.9294117647058824
sg1109
F0.2
sg1110
F0.2
sg1111
F0.3333333333333333
sg1112
I3
sg1113
F0.82
stp1124
a(g863
(dp1125
g1105
I84
sg1106
I1
sg1107
I14
sg1108
F0.9882352941176471
sg1109
F0.06666666666666667
sg1110
F0.06666666666666667
sg1111
F0.5
sg1112
I1
sg1113
F0.85
stp1126
a(g915
(dp1127
g1105
I78
sg1106
I7
sg1107
I15
sg1108
F0.9176470588235294
sg1109
F0.0
sg1110
F0.0
sg1111
F0.0
sg1112
I0
sg1113
F0.78
stp1128
a(g967
(dp1129
g1105
I77
sg1106
I8
sg1107
I15
sg1108
F0.9058823529411765
sg1109
F0.0
sg1110
F0.0
sg1111
F0.0
sg1112
I0
sg1113
F0.77
stp1130
a(g1019
(dp1131
g1105
I77
sg1106
I8
sg1107
I15
sg1108
F0.9058823529411765
sg1109
F0.0
sg1110
F0.0
sg1111
F0.0
sg1112
I0
sg1113
F0.77
stp1132
a(g308
(dp1133
g1105
I84
sg1106
I1
sg1107
I14
sg1108
F0.9882352941176471
sg1109
F0.06666666666666667
sg1110
F0.06666666666666667
sg1111
F0.5
sg1112
I1
sg1113
F0.85
stp1134
a(lp1135
(g655
cnumpy.core.multiarray
scalar
p1136
(cnumpy
dtype
p1137
(S'f8'
p1138
I0
I1
tp1139
Rp1140
(I3
S'<'
p1141
NNNI-1
I-1
I0
tp1142
bS'\x91\xf6\\\xc3)\x90\xe6?'
p1143
tp1144
Rp1145
tp1146
a(g23
g1136
(g1140
S'7\x04\xd1\x9dj7\xe4?'
p1147
tp1148
Rp1149
tp1150
a(g707
g1136
(g1140
S'\xbaS\xed\x86 \xba\xe3?'
p1151
tp1152
Rp1153
tp1154
a(g603
g1136
(g1140
S'\xa1\xa1\xa1\xa1\xa1\xa1\xe1?'
p1155
tp1156
Rp1157
tp1158
a(g759
g1136
(g1140
S'e2\xff\xcb\x98e\xe2?'
p1159
tp1160
Rp1161
tp1162
a(g811
g1136
(g1140
S'L\xb2\x18\x7f\xe5K\xe2?'
p1163
tp1164
Rp1165
tp1166
a(g863
g1136
(g1140
S'\xe4\xb0}J\x17\xe4\xe0?'
p1167
tp1168
Rp1169
tp1170
a(g915
g1136
(g1140
S']]]]]]\xdd?'
p1171
tp1172
Rp1173
tp1174
a(g1019
g1136
(g1140
S'\xfd\xfc\xfc\xfc\xfc\xfc\xdc?'
p1175
tp1176
Rp1177
tp1178
a(g967
g1136
(g1140
S'\xfd\xfc\xfc\xfc\xfc\xfc\xdc?'
p1179
tp1180
Rp1181
tp1182
a(g308
g1136
(g1140
S'\xe4\xb0}J\x17\xe4\xe0?'
p1183
tp1184
Rp1185
tp1186
a(lp1187
(g655
g1136
(g1140
S'\x00\xd0\xbd\x9c\x9b3\xd5?'
p1188
tp1189
Rp1190
tp1191
a(g23
g1136
(g1140
S'Z\xfa\xdf\x18K\xd7\xd2?'
p1192
tp1193
Rp1194
tp1195
a(g707
g1136
(g1140
S'\xd2\x87\xeb\xcd\xcc@\xd0?'
p1196
tp1197
Rp1198
tp1199
a(g603
g1136
(g1140
S"'\x13\xd5k!\x14\xd4?"
p1200
tp1201
Rp1202
tp1203
a(g759
g1136
(g1140
S'B\x8b\x12F\x91\xa4\xcd?'
p1204
tp1205
Rp1206
tp1207
a(g811
g1136
(g1140
S'\xbey5\xf1\xach\xe4?'
p1208
tp1209
Rp1210
tp1211
a(g863
g1136
(g1140
S'\xc6\x92_,\xf9\xc5\xe2?'
p1212
tp1213
Rp1214
tp1215
a(g915
g1136
(g1140
S'ffffff\xe2?'
p1216
tp1217
Rp1218
tp1219
a(g1019
g1136
(g1140
S'ffffff\xe2?'
p1220
tp1221
Rp1222
tp1223
a(g967
g1136
(g1140
S'ffffff\xe2?'
p1224
tp1225
Rp1226
tp1227
a(g308
g1136
(g1140
S'\xc6\x92_,\xf9\xc5\xe2?'
p1228
tp1229
Rp1230
tp1231
atp1232
.