(iconvex_optimization
ConvexOptimization
p0
(dp1
S'raw_network'
p2
(lp3
(lp4
F-0.0010175509560781393
aF-0.0
aF-0.0
aF-0.0
aF-0.0
aF-0.0
aF-0.0
aF-0.0
aF0.0
aF-0.0
aa(lp5
F0.0
aF-0.001006391050097477
aF0.0
aF0.0
aF0.0
aF0.0
aF0.0
aF0.0
aF0.0
aF0.0
aa(lp6
F0.0
aF0.0
aF-0.0010054359374152
aF0.0
aF0.0
aF0.0
aF0.0
aF0.0
aF0.0
aF0.0
aa(lp7
F0.0
aF-0.0
aF-0.0
aF-0.0010078920764868826
aF0.0
aF0.0
aF0.0
aF0.0
aF0.0
aF0.0
aa(lp8
F0.0
aF-0.0
aF-0.0
aF-0.0
aF-0.001008887200953268
aF-0.0
aF0.0
aF-0.0
aF-0.0
aF-0.0
aa(lp9
F0.0
aF-0.0
aF-0.0
aF-0.0
aF0.0
aF-0.0010065467816389173
aF0.0
aF0.0
aF0.0
aF0.0
aa(lp10
F0.0
aF-0.0
aF-0.0
aF-0.0
aF0.0
aF-0.0
aF-0.0010025593714715342
aF-0.0
aF0.0
aF-0.0
aa(lp11
F0.0
aF-0.0
aF-0.0
aF-0.0
aF0.0
aF-0.0
aF0.0
aF-0.0
aF0.0
aF0.0
aa(lp12
F0.0
aF-0.0
aF-0.0
aF-0.0
aF0.0
aF-0.0
aF-0.0
aF-0.0
aF-0.0010055054248283568
aF0.0
aa(lp13
F0.0
aF-0.0
aF-0.0
aF-0.0
aF0.0
aF-0.0
aF0.0
aF-0.0
aF-0.0
aF-0.0
aasS'data_dir'
p14
S'/Users/jesse/Workspace/School/MastersThesis/Program/output//Convex-Opt-dream410-MCZ-ConvOpt-PositivePrior-Medium--2012-02-02_23.54.50//ConvOpt_T-0.08//data/'
p15
sS'name'
p16
S'ConvOpt_T-0.08'
p17
sS'settings'
p18
(dp19
S'inferelator'
p20
(dp21
S'datafiles'
p22
S'data/waffles.txt data/testing.txt'
p23
sS'config'
p24
S'config/tlclr_testing.cfg'
p25
ssS'genie3'
p26
(dp27
S'config'
p28
S'config/genie3_testing.cfg'
p29
ssS'inferelator-pipeline'
p30
(dp31
S'config'
p32
S'config/inferelator-pipeline.cfg'
p33
ssS'cmonkey'
p34
(dp35
S'config'
p36
S'config/cmonkey_testing.cfg'
p37
ssS'tlclr'
p38
(dp39
S'config'
p40
S'config/tlclr_testing.cfg'
p41
ssS'global'
p42
(dp43
S'medium2_network_goldnet_file'
p44
S'datasets/20Gene_Network2/Ecoli-20Genes-6Reg-3_goldstandard.tsv'
p45
sS'dream410_3_network_wildtype_file'
p46
S'datasets/DREAM4_InSilico_Size10/insilico_size10_3/insilico_size10_3_wildtype.tsv'
p47
sS'dream4100_5_network_knockdown_file'
p48
S'datasets/DREAM4_InSilico_Size100/insilico_size100_5/insilico_size100_5_knockdowns.tsv'
p49
sS'dream410_network_wildtype_file'
p50
S'datasets/DREAM4_InSilico_Size10/insilico_size10_1/insilico_size10_1_wildtype.tsv'
p51
sS'medium2_network_delta_t'
p52
I50
sS'dream4100_2_network_timeseries_file'
p53
S'datasets/DREAM4_InSilico_Size100/insilico_size100_2/insilico_size100_2_timeseries.tsv'
p54
sS'medium_network_wildtype_file'
p55
S'datasets/20Gene_Network/Ecoli-20Genes-6Reg-2_wildtype.tsv'
p56
sS'dream4100_network_goldnet_file'
p57
S'datasets/DREAM4_InSilico_Size100/insilico_size100_1/DREAM4_GoldStandard_InSilico_Size100_1.tsv'
p58
sS'dream4100_4_network_multifactorial_file'
p59
S'datasets/DREAM4_InSilico_Size100/insilico_size100_4/insilico_size100_4_multifactorial.tsv'
p60
sS'large_network_knockout_file'
p61
S'datasets/Large_Network/Ecoli-1_knockouts.tsv'
p62
sS'ecoli400_timeseries_file'
p63
S'datasets/Ecoli-400/Ecoli-400-1_dream4_timeseries.tsv'
p64
sS'small_network_multifactorial_file'
p65
S'datasets/Small_Network/Ecoli-1_multifactorial.tsv'
p66
sS'dream410_4_network_knockdown_file'
p67
S'datasets/DREAM4_InSilico_Size10/insilico_size10_4/insilico_size10_4_knockdowns.tsv'
p68
sS'dream410_5_network_wildtype_file'
p69
S'datasets/DREAM4_InSilico_Size10/insilico_size10_5/insilico_size10_5_wildtype.tsv'
p70
sS'dream4100_network_delta_t'
p71
I50
sS'dream4100_1000tp_network_knockout_file'
p72
S'datasets/DREAM4_100_1000TP/insilico_size100_1_knockouts.tsv'
p73
sS'tflist'
p74
S'ArabGeneTFNames.csv'
p75
sS'large_network_knockdown_file'
p76
S'datasets/Large_Network/Ecoli-1_knockdowns.tsv'
p77
sS'dream410_4_network_wildtype_file'
p78
S'datasets/DREAM4_InSilico_Size10/insilico_size10_4/insilico_size10_4_wildtype.tsv'
p79
sS'medium_network_multifactorial_file'
p80
S'datasets/20Gene_Network/Ecoli-20Genes-6Reg-2_multifactorial.tsv'
p81
sS'dream410_5_network_knockdown_file'
p82
S'datasets/DREAM4_InSilico_Size10/insilico_size10_5/insilico_size10_5_knockdowns.tsv'
p83
sS'dream410_5_network_goldnet_file'
p84
S'datasets/DREAM4_InSilico_Size10/insilico_size10_5/DREAM4_GoldStandard_InSilico_Size10_5.tsv'
p85
sS'dream410_2_network_knockdown_file'
p86
S'datasets/DREAM4_InSilico_Size10/insilico_size10_2/insilico_size10_2_knockdowns.tsv'
p87
sS'template_dir'
p88
S'config/templates/'
p89
sS'dream4100_1000tp_network_delta_t'
p90
I50
sS'dream4100_2_network_goldnet_file'
p91
S'datasets/DREAM4_InSilico_Size100/insilico_size100_2/DREAM4_GoldStandard_InSilico_Size100_2.tsv'
p92
sS'experiment_name'
p93
S'Convex-Opt-dream410'
p94
sS'dream410_4_network_multifactorial_file'
p95
S'datasets/DREAM4_InSilico_Size10/insilico_size10_4/insilico_size10_4_multifactorial.tsv'
p96
sS'dream410_network_timeseries_file'
p97
S'datasets/DREAM4_InSilico_Size10/insilico_size10_1/insilico_size10_1_timeseries.tsv'
p98
sS'dream410_1000tp_network_wildtype_file'
p99
S'datasets/DREAM4_10_1000TP/insilico_size10_1_wildtype.tsv'
p100
sS'dream4100_1000tp_network_goldnet_file'
p101
S'datasets/DREAM4_InSilico_Size100/insilico_size100_1/DREAM4_GoldStandard_InSilico_Size100_1.tsv'
p102
sS'dream4100_network_knockdown_file'
p103
S'datasets/DREAM4_InSilico_Size100/insilico_size100_1/insilico_size100_1_knockdowns.tsv'
p104
sS'dream4100_network_wildtype_file'
p105
S'datasets/DREAM4_InSilico_Size100/insilico_size100_1/insilico_size100_1_wildtype.tsv'
p106
sS'dream4100_3_network_multifactorial_file'
p107
S'datasets/DREAM4_InSilico_Size100/insilico_size100_3/insilico_size100_3_multifactorial.tsv'
p108
sS'n_processors'
p109
I3
sS'dream4100_3_network_knockdown_file'
p110
S'datasets/DREAM4_InSilico_Size100/insilico_size100_3/insilico_size100_3_knockdowns.tsv'
p111
sS'medium2_network_timeseries_file'
p112
S'datasets/20Gene_Network2/Ecoli-20Genes-6Reg-3_dream4_timeseries.tsv'
p113
sS'dream410_4_network_delta_t'
p114
I50
sS'dream4100_5_network_delta_t'
p115
I50
sS'dream4100_5_network_multifactorial_file'
p116
S'datasets/DREAM4_InSilico_Size100/insilico_size100_5/insilico_size100_5_multifactorial.tsv'
p117
sS'dream410_1000tp_network_knockdown_file'
p118
S'datasets/DREAM4_10_1000TP/insilico_size10_1_knockdowns.tsv'
p119
sS'dream4100_network_knockout_file'
p120
S'datasets/DREAM4_InSilico_Size100/insilico_size100_1/insilico_size100_1_knockouts.tsv'
p121
sS'log_dir'
p122
S'output/logs/'
p123
sS'dream4100_4_network_wildtype_file'
p124
S'datasets/DREAM4_InSilico_Size100/insilico_size100_4/insilico_size100_4_wildtype.tsv'
p125
sS'dream4100_4_network_timeseries_file'
p126
S'datasets/DREAM4_InSilico_Size100/insilico_size100_4/insilico_size100_4_timeseries.tsv'
p127
sS'steady_state_files'
p128
S'550ath.ratios.fix'
p129
sS'medium_network_delta_t'
p130
I50
sS'ecoli400_wildtype_file'
p131
S'datasets/Ecoli-400/Ecoli-400-1_wildtype.tsv'
p132
sS'dream410_network_goldnet_file'
p133
S'datasets/DREAM4_InSilico_Size10/insilico_size10_1/DREAM4_GoldStandard_InSilico_Size10_1.tsv'
p134
sS'dream410_4_network_timeseries_file'
p135
S'datasets/DREAM4_InSilico_Size10/insilico_size10_4/insilico_size10_4_timeseries.tsv'
p136
sS'dream4100_3_network_timeseries_file'
p137
S'datasets/DREAM4_InSilico_Size100/insilico_size100_3/insilico_size100_3_timeseries.tsv'
p138
sS'large_network_delta_t'
p139
I30
sS'dream410_1000tp_network_knockout_file'
p140
S'datasets/DREAM4_10_1000TP/insilico_size10_1_knockouts.tsv'
p141
sS'medium2_network_wildtype_file'
p142
S'datasets/20Gene_Network2/Ecoli-20Genes-6Reg-3_wildtype.tsv'
p143
sS'dream4100_5_network_timeseries_file'
p144
S'datasets/DREAM4_InSilico_Size100/insilico_size100_5/insilico_size100_5_timeseries.tsv'
p145
sS'ecoli400_goldnet_file'
p146
S'datasets/Ecoli-400/Ecoli-400-1_goldstandard.tsv'
p147
sS'dream4100_network_multifactorial_file'
p148
S'datasets/DREAM4_InSilico_Size100/insilico_size100_1/insilico_size100_1_multifactorial.tsv'
p149
sS'dream410_2_network_wildtype_file'
p150
S'datasets/DREAM4_InSilico_Size10/insilico_size10_2/insilico_size10_2_wildtype.tsv'
p151
sS'dream410_5_network_timeseries_file'
p152
S'datasets/DREAM4_InSilico_Size10/insilico_size10_5/insilico_size10_5_timeseries.tsv'
p153
sS'small_network_knockdown_file'
p154
S'datasets/Small_Network/Ecoli-1_knockdowns.tsv'
p155
sS'dream410_network_knockout_file'
p156
S'datasets/DREAM4_InSilico_Size10/insilico_size10_1/insilico_size10_1_knockouts.tsv'
p157
sS'dream410_3_network_goldnet_file'
p158
S'datasets/DREAM4_InSilico_Size10/insilico_size10_3/DREAM4_GoldStandard_InSilico_Size10_3.tsv'
p159
sS'medium_network_knockdown_file'
p160
S'datasets/20Gene_Network/Ecoli-20Genes-6Reg-2_knockdowns.tsv'
p161
sS'dream410_4_network_knockout_file'
p162
S'datasets/DREAM4_InSilico_Size10/insilico_size10_4/insilico_size10_4_knockouts.tsv'
p163
sS'dream4100_2_network_wildtype_file'
p164
S'datasets/DREAM4_InSilico_Size100/insilico_size100_2/insilico_size100_2_wildtype.tsv'
p165
sS'dream410_1000tp_network_timeseries_file'
p166
S'datasets/DREAM4_10_1000TP/insilico_size10_1_timeseries.tsv'
p167
sS'dream410_network_delta_t'
p168
I50
sS'ecoli400_knockout_file'
p169
S'datasets/Ecoli-400/Ecoli-400-1_knockouts.tsv'
p170
sS'dream4100_3_network_knockout_file'
p171
S'datasets/DREAM4_InSilico_Size100/insilico_size100_3/insilico_size100_3_knockouts.tsv'
p172
sS'dream4100_1000tp_network_multifactorial_file'
p173
S'datasets/DREAM4_100_1000TP/insilico_size100_1_multifactorial.tsv'
p174
sS'dream410_2_network_goldnet_file'
p175
S'datasets/DREAM4_InSilico_Size10/insilico_size10_2/DREAM4_GoldStandard_InSilico_Size10_2.tsv'
p176
sS'small_network_wildtype_file'
p177
S'datasets/Small_Network/Ecoli-1_wildtype.tsv'
p178
sS'dream4100_2_network_delta_t'
p179
I50
sS'medium_network_timeseries_file'
p180
S'datasets/20Gene_Network/Ecoli-20Genes-6Reg-2_dream4_timeseries.tsv'
p181
sS'dream410_5_network_knockout_file'
p182
S'datasets/DREAM4_InSilico_Size10/insilico_size10_5/insilico_size10_5_knockouts.tsv'
p183
sS'dream410_2_network_knockout_file'
p184
S'datasets/DREAM4_InSilico_Size10/insilico_size10_2/insilico_size10_2_knockouts.tsv'
p185
sS'dream410_2_network_timeseries_file'
p186
S'datasets/DREAM4_InSilico_Size10/insilico_size10_2/insilico_size10_2_timeseries.tsv'
p187
sS'dream4100_3_network_delta_t'
p188
I50
sS'use_cluster'
p189
S'False'
p190
sS'large_network_timeseries_file'
p191
S'datasets/Large_Network/Ecoli-1_dream4_timeseries.tsv'
p192
sS'dream410_3_network_knockdown_file'
p193
S'datasets/DREAM4_InSilico_Size10/insilico_size10_3/insilico_size10_3_knockdowns.tsv'
p194
sS'dream410_2_network_delta_t'
p195
I50
sS'medium2_network_knockout_file'
p196
S'datasets/20Gene_Network2/Ecoli-20Genes-6Reg-3_knockouts.tsv'
p197
sS'dream4100_3_network_wildtype_file'
p198
S'datasets/DREAM4_InSilico_Size100/insilico_size100_3/insilico_size100_3_wildtype.tsv'
p199
sS'dream410_3_network_timeseries_file'
p200
S'datasets/DREAM4_InSilico_Size10/insilico_size10_3/insilico_size10_3_timeseries.tsv'
p201
sS'small_network_goldnet_file'
p202
S'datasets/Small_Network/Ecoli-1_goldstandard.tsv'
p203
sS'small_network_delta_t'
p204
I30
sS'dream4100_5_network_wildtype_file'
p205
S'datasets/DREAM4_InSilico_Size100/insilico_size100_5/insilico_size100_5_wildtype.tsv'
p206
sS'dream410_3_network_knockout_file'
p207
S'datasets/DREAM4_InSilico_Size10/insilico_size10_3/insilico_size10_3_knockouts.tsv'
p208
sS'dream410_network_knockdown_file'
p209
S'datasets/DREAM4_InSilico_Size10/insilico_size10_1/insilico_size10_1_knockdowns.tsv'
p210
sS'dream410_3_network_delta_t'
p211
I50
sS'dream4100_network_timeseries_file'
p212
S'datasets/DREAM4_InSilico_Size100/insilico_size100_1/insilico_size100_1_timeseries.tsv'
p213
sS'dream4100_1000tp_network_wildtype_file'
p214
S'datasets/DREAM4_100_1000TP/insilico_size100_1_wildtype.tsv'
p215
sS'dream410_1000tp_network_goldnet_file'
p216
S'datasets/DREAM4_InSilico_Size10/insilico_size10_1/DREAM4_GoldStandard_InSilico_Size10_1.tsv'
p217
sS'large_network_multifactorial_file'
p218
S'datasets/Large_Network/Ecoli-1_multifactorial.tsv'
p219
sS'dream4100_1000tp_network_knockdown_file'
p220
S'datasets/DREAM4_100_1000TP/insilico_size100_1_knockdowns.tsv'
p221
sS'large_network_wildtype_file'
p222
S'datasets/Large_Network/Ecoli-1_wildtype.tsv'
p223
sS'ecoli400_multifactorial_file'
p224
S'datasets/Ecoli-400/Ecoli-400-1_multifactorial.tsv'
p225
sS'dream410_network_multifactorial_file'
p226
S'datasets/DREAM4_InSilico_Size10/insilico_size10_1/insilico_size10_1_multifactorial.tsv'
p227
sS'small_network_knockout_file'
p228
S'datasets/Small_Network/Ecoli-1_knockouts.tsv'
p229
sS'dream4100_4_network_knockout_file'
p230
S'datasets/DREAM4_InSilico_Size100/insilico_size100_4/insilico_size100_4_knockouts.tsv'
p231
sS'matlab_path'
p232
S'matlab'
p233
sS'dream410_4_network_goldnet_file'
p234
S'datasets/DREAM4_InSilico_Size10/insilico_size10_4/DREAM4_GoldStandard_InSilico_Size10_4.tsv'
p235
sS'dream4100_2_network_multifactorial_file'
p236
S'datasets/DREAM4_InSilico_Size100/insilico_size100_2/insilico_size100_2_multifactorial.tsv'
p237
sS'ecoli400_knockdown_file'
p238
S'datasets/Ecoli-400/Ecoli-400-1_knockdowns.tsv'
p239
sS'dream4100_3_network_goldnet_file'
p240
S'datasets/DREAM4_InSilico_Size100/insilico_size100_3/DREAM4_GoldStandard_InSilico_Size100_3.tsv'
p241
sS'time_series_delta_t'
p242
I50
sS'dream4100_1000tp_network_timeseries_file'
p243
S'datasets/DREAM4_100_1000TP/insilico_size100_1_timeseries.tsv'
p244
sS'medium_network_goldnet_file'
p245
S'datasets/20Gene_Network/Ecoli-20Genes-6Reg-2_goldstandard.tsv'
p246
sS'dream4100_4_network_goldnet_file'
p247
S'datasets/DREAM4_InSilico_Size100/insilico_size100_4/DREAM4_GoldStandard_InSilico_Size100_4.tsv'
p248
sS'large_network_goldnet_file'
p249
S'datasets/Large_Network/Ecoli-1_goldstandard.tsv'
p250
sS'working_dir'
p251
S'/Users/jesse/Workspace/School/MastersThesis/Program/'
p252
sS'output_dir'
p253
S'output//Convex-Opt-dream410-MCZ-ConvOpt-PositivePrior-Medium--2012-02-02_23.54.50/'
p254
sS'medium2_network_knockdown_file'
p255
S'datasets/20Gene_Network2/Ecoli-20Genes-6Reg-3_knockdowns.tsv'
p256
sS'time_series_files'
p257
S'datasets/dream4_10/dream4_ts.tsv'
p258
sS'dream4100_5_network_knockout_file'
p259
S'datasets/DREAM4_InSilico_Size100/insilico_size100_5/insilico_size100_5_knockouts.tsv'
p260
sS'dream410_3_network_multifactorial_file'
p261
S'datasets/DREAM4_InSilico_Size10/insilico_size10_3/insilico_size10_3_multifactorial.tsv'
p262
sS'dream4100_2_network_knockout_file'
p263
S'datasets/DREAM4_InSilico_Size100/insilico_size100_2/insilico_size100_2_knockouts.tsv'
p264
sS'dream410_1000tp_network_multifactorial_file'
p265
S'datasets/DREAM4_10_1000TP/insilico_size10_1_multifactorial.tsv'
p266
sS'dream410_5_network_delta_t'
p267
I50
sS'dream4100_5_network_goldnet_file'
p268
S'datasets/DREAM4_InSilico_Size100/insilico_size100_5/DREAM4_GoldStandard_InSilico_Size100_5.tsv'
p269
sS'small_network_timeseries_file'
p270
S'datasets/Small_Network/Ecoli-1_dream4_timeseries.tsv'
p271
sS'dream410_2_network_multifactorial_file'
p272
S'datasets/DREAM4_InSilico_Size10/insilico_size10_2/insilico_size10_2_multifactorial.tsv'
p273
sS'dream4100_4_network_knockdown_file'
p274
S'datasets/DREAM4_InSilico_Size100/insilico_size100_4/insilico_size100_4_knockdowns.tsv'
p275
sS'medium_network_knockout_file'
p276
S'datasets/20Gene_Network/Ecoli-20Genes-6Reg-2_knockouts.tsv'
p277
sS'ecoli400_delta_t'
p278
I50
sS'medium2_network_multifactorial_file'
p279
S'datasets/20Gene_Network2/Ecoli-20Genes-6Reg-3_multifactorial.tsv'
p280
sS'dream4100_2_network_knockdown_file'
p281
S'datasets/DREAM4_InSilico_Size100/insilico_size100_2/insilico_size100_2_knockdowns.tsv'
p282
sS'dream4100_4_network_delta_t'
p283
I50
sS'dream410_1000tp_network_delta_t'
p284
I50
sS'dream410_5_network_multifactorial_file'
p285
S'datasets/DREAM4_InSilico_Size10/insilico_size10_5/insilico_size10_5_multifactorial.tsv'
p286
ssS'nir'
p287
(dp288
S'config'
p289
S'config/nir_testing.cfg'
p290
ssS'mcz'
p291
(dp292
S'config'
p293
S'config/mcz_testing.cfg'
p294
ssS'convex_optimization'
p295
(dp296
S'file_ext'
p297
S'm'
p298
sS'init_mat_file'
p299
S''
p300
sg14
S'/Users/jesse/Workspace/School/MastersThesis/Program/output//Convex-Opt-dream410-MCZ-ConvOpt-PositivePrior-Medium--2012-02-02_23.54.50//ConvOpt_T-0.09//data/'
p301
sg16
S'ConvOpt_T-0.09'
p302
sS'knockout'
p303
S'/Users/jesse/Workspace/School/MastersThesis/Program/output//Convex-Opt-dream410-MCZ-ConvOpt-PositivePrior-Medium--2012-02-02_23.54.50//ConvOpt_T-0.09//data//insilico_size10_1_knockouts.tsv'
p304
sS'param_t'
p305
F0.09
sS'edge_cutoff'
p306
F0.75
sS'settings_file'
p307
S'/Users/jesse/Workspace/School/MastersThesis/Program/output//Convex-Opt-dream410-MCZ-ConvOpt-PositivePrior-Medium--2012-02-02_23.54.50//ConvOpt_T-0.09//convex_optimization_settings.m'
p308
sS'output_dir'
p309
S'/Users/jesse/Workspace/School/MastersThesis/Program/output//Convex-Opt-dream410-MCZ-ConvOpt-PositivePrior-Medium--2012-02-02_23.54.50//ConvOpt_T-0.09/'
p310
sS'working_dir_config'
p311
S'/Users/jesse/Workspace/School/MastersThesis/Program/output//Convex-Opt-dream410-MCZ-ConvOpt-PositivePrior-Medium--2012-02-02_23.54.50//ConvOpt_T-0.09//convex_optimization_program/run_convex_optimization.m'
p312
sS'unassigned_prior_value'
p313
I10
sS'path'
p314
S'algorithms/convex_optimization/'
p315
sS'ratio_files'
p316
S'/Users/jesse/Workspace/School/MastersThesis/Program/output//Convex-Opt-dream410-MCZ-ConvOpt-PositivePrior-Medium--2012-02-02_23.54.50//ConvOpt_T-0.09//data//insilico_size10_1_knockouts.tsv'
p317
sS'prior_file'
p318
g300
sS'ratio_file'
p319
S'ratios.csv'
p320
sS'mat_ratio_file'
p321
S'ratios.mat'
p322
sS'log_dir'
p323
S'/Users/jesse/Workspace/School/MastersThesis/Program/output//Convex-Opt-dream410-MCZ-ConvOpt-PositivePrior-Medium--2012-02-02_23.54.50//ConvOpt_T-0.09//log/'
p324
ssS'banjo'
p325
(dp326
S'num_genes'
p327
I10
sS'config'
p328
S'config/banjo_testing.cfg'
p329
ssS'dfg4grn'
p330
(dp331
S'cluster_expname'
p332
S'testing'
p333
sS'tau'
p334
I10
sS'lambda_w'
p335
I2
sS'cluster_procs'
p336
I1
sS'tau_range'
p337
(lp338
I1
aI3
asS'cluster_email'
p339
S'jml654@nyu.edu'
p340
sS'eta_z'
p341
I3
sS'eta_z_range'
p342
(lp343
F0.0001
aF0.1
asS'lambda_w_range'
p344
(lp345
F0.001
aF0.2
asS'cluster_priority'
p346
I1
sS'cluster_nodes'
p347
I1
sS'path'
p348
S'algorithms/dfg4grn/'
p349
sS'config'
p350
S'config/dfg4grn_testing.cfg'
p351
sS'cluster_username'
p352
S'jml654'
p353
ssS'clr'
p354
(dp355
S'config'
p356
S'config/clr_testing.cfg'
p357
ssS'nirest'
p358
(dp359
S'ratio_files'
p360
S'datasets/dream4_10/dream4_ts.tsv'
p361
sS'config'
p362
S'config/nirest_testing.cfg'
p363
sssS'cmd'
p364
S'matlab -nodesktop -nodisplay -nosplash -r "addpath(genpath(\'./\'));try;run_convex_optimization, catch err, err, end, exit"'
p365
sS'alg_name'
p366
S'convex_optimization'
p367
sS'prior'
p368
Nsg251
S'/Users/jesse/Workspace/School/MastersThesis/Program/output//Convex-Opt-dream410-MCZ-ConvOpt-PositivePrior-Medium--2012-02-02_23.54.50//ConvOpt_T-0.08//convex_optimization_program/'
p369
sg309
S'/Users/jesse/Workspace/School/MastersThesis/Program/output//Convex-Opt-dream410-MCZ-ConvOpt-PositivePrior-Medium--2012-02-02_23.54.50//ConvOpt_T-0.08/'
p370
sS'network'
p371
(iNetwork
Network
p372
(dp373
S'binary'
p374
I00
sg371
(dp375
S'G7'
p376
(dp377
g376
F0.0010025593714715342
sS'G6'
p378
F0.0
sS'G5'
p379
F0.0
sS'G4'
p380
F0.0
sS'G3'
p381
F0.0
sS'G2'
p382
F0.0
sS'G1'
p383
F0.0
sS'G9'
p384
F0.0
sS'G8'
p385
F0.0
sS'G10'
p386
F0.0
ssg378
(dp387
g376
F0.0
sg378
F0.0010065467816389173
sg379
F0.0
sg380
F0.0
sg381
F0.0
sg382
F0.0
sg383
F0.0
sg384
F0.0
sg385
F0.0
sg386
F0.0
ssg379
(dp388
g376
F0.0
sg378
F0.0
sg379
F0.001008887200953268
sg380
F0.0
sg381
F0.0
sg382
F0.0
sg383
F0.0
sg384
F0.0
sg385
F0.0
sg386
F0.0
ssg380
(dp389
g376
F0.0
sg378
F0.0
sg379
F0.0
sg380
F0.0010078920764868826
sg381
F0.0
sg382
F0.0
sg383
F0.0
sg384
F0.0
sg385
F0.0
sg386
F0.0
ssg381
(dp390
g376
F0.0
sg378
F0.0
sg379
F0.0
sg380
F0.0
sg381
F0.0010054359374152
sg382
F0.0
sg383
F0.0
sg384
F0.0
sg385
F0.0
sg386
F0.0
ssg382
(dp391
g376
F0.0
sg378
F0.0
sg379
F0.0
sg380
F0.0
sg381
F0.0
sg382
F0.001006391050097477
sg383
F0.0
sg384
F0.0
sg385
F0.0
sg386
F0.0
ssg383
(dp392
g376
F0.0
sg378
F0.0
sg379
F0.0
sg380
F0.0
sg381
F0.0
sg382
F0.0
sg383
F0.0010175509560781393
sg384
F0.0
sg385
F0.0
sg386
F0.0
ssg384
(dp393
g376
F0.0
sg378
F0.0
sg379
F0.0
sg380
F0.0
sg381
F0.0
sg382
F0.0
sg383
F0.0
sg384
F0.0010055054248283568
sg385
F0.0
sg386
F0.0
ssg385
(dp394
g376
F0.0
sg378
F0.0
sg379
F0.0
sg380
F0.0
sg381
F0.0
sg382
F0.0
sg383
F0.0
sg384
F0.0
sg385
F0.0
sg386
F0.0
ssg386
(dp395
g376
F0.0
sg378
F0.0
sg379
F0.0
sg380
F0.0
sg381
F0.0
sg382
F0.0
sg383
F0.0
sg384
F0.0
sg385
F0.0
sg386
F0.0
sssS'cutoff'
p396
I0
sS'signed'
p397
I00
sS'original_network'
p398
g3
sS'thresh'
p399
I0
sS'gene_list'
p400
(lp401
g383
ag382
ag381
ag380
ag379
ag378
ag376
ag385
ag384
ag386
asbsS'datatypes'
p402
(lp403
S'overexpression'
p404
ag303
aS'multifactorial'
p405
aS'knockdown'
p406
asg400
g401
sS'cwd'
p407
g369
sS'data_storage'
p408
(iDataStore
MicroarrayData
p409
(dp410
S'experiments'
p411
(lp412
(iDataStore
Experiment
p413
(dp414
S'ratios'
p415
(dp416
g376
S'0.8300751'
p417
sg378
S'0.3751750'
p418
sg379
S'0.8043362'
p419
sg380
S'0.3623740'
p420
sg381
S'0.2643345'
p421
sg382
S'0.3726836'
p422
sg383
S'0.0000000'
p423
sg384
S'0.6211513'
p424
sg385
S'0.7745205'
p425
sg386
S'0.7196954'
p426
ssS'type'
p427
g303
sS'tfs'
p428
(lp429
sg16
S'0'
p430
sS'file'
p431
g157
sba(iDataStore
Experiment
p432
(dp433
g415
(dp434
g376
S'0.5208251'
p435
sg378
S'0.3396784'
p436
sg379
S'0.1510230'
p437
sg380
S'0.6002870'
p438
sg381
S'0.3771581'
p439
sg382
S'0.0000000'
p440
sg383
S'0.7331094'
p441
sg384
S'0.7350115'
p442
sg385
S'0.6787224'
p443
sg386
S'0.7922641'
p444
ssg427
g303
sg428
g429
sg16
S'1'
p445
sg431
g157
sba(iDataStore
Experiment
p446
(dp447
g415
(dp448
g376
S'0.6641803'
p449
sg378
S'0.4025691'
p450
sg379
S'0.0791767'
p451
sg380
S'0.3730533'
p452
sg381
S'0.0000000'
p453
sg382
S'0.1391272'
p454
sg383
S'0.7070529'
p455
sg384
S'0.7220312'
p456
sg385
S'0.8045297'
p457
sg386
S'0.6658928'
p458
ssg427
g303
sg428
g429
sg16
S'2'
p459
sg431
g157
sba(iDataStore
Experiment
p460
(dp461
g415
(dp462
g376
S'0.1099868'
p463
sg378
S'0.2836348'
p464
sg379
S'0.1489169'
p465
sg380
S'0.0000000'
p466
sg381
S'0.6167796'
p467
sg382
S'0.1071007'
p468
sg383
S'0.8450825'
p469
sg384
S'0.5874284'
p470
sg385
S'0.6342242'
p471
sg386
S'0.7160394'
p472
ssg427
g303
sg428
g429
sg16
S'3'
p473
sg431
g157
sba(iDataStore
Experiment
p474
(dp475
g415
(dp476
g376
S'0.5416993'
p477
sg378
S'0.3271487'
p478
sg379
S'0.0000000'
p479
sg380
S'0.5616994'
p480
sg381
S'0.4261411'
p481
sg382
S'0.1364529'
p482
sg383
S'0.8780137'
p483
sg384
S'0.7343038'
p484
sg385
S'0.5681723'
p485
sg386
S'0.7933364'
p486
ssg427
g303
sg428
g429
sg16
S'4'
p487
sg431
g157
sba(iDataStore
Experiment
p488
(dp489
g415
(dp490
g376
S'0.4606635'
p491
sg378
S'0.0000000'
p492
sg379
S'0.0947163'
p493
sg380
S'0.6272800'
p494
sg381
S'0.4614097'
p495
sg382
S'0.3975987'
p496
sg383
S'0.6164494'
p497
sg384
S'0.7374282'
p498
sg385
S'0.5924707'
p499
sg386
S'0.7962721'
p500
ssg427
g303
sg428
g429
sg16
S'5'
p501
sg431
g157
sba(iDataStore
Experiment
p502
(dp503
g415
(dp504
g376
S'0.0000000'
p505
sg378
S'0.3024242'
p506
sg379
S'0.0843933'
p507
sg380
S'0.2712395'
p508
sg381
S'0.3150332'
p509
sg382
S'0.0855962'
p510
sg383
S'0.6906661'
p511
sg384
S'0.8041040'
p512
sg385
S'0.7503346'
p513
sg386
S'0.6355293'
p514
ssg427
g303
sg428
g429
sg16
S'6'
p515
sg431
g157
sba(iDataStore
Experiment
p516
(dp517
g415
(dp518
g376
S'0.5464286'
p519
sg378
S'0.6322827'
p520
sg379
S'0.1194226'
p521
sg380
S'0.6637898'
p522
sg381
S'0.3753798'
p523
sg382
S'0.2786197'
p524
sg383
S'0.7996258'
p525
sg384
S'0.7722994'
p526
sg385
S'0.0000000'
p527
sg386
S'0.6917469'
p528
ssg427
g303
sg428
g429
sg16
S'7'
p529
sg431
g157
sba(iDataStore
Experiment
p530
(dp531
g415
(dp532
g376
S'0.6929004'
p533
sg378
S'0.2983418'
p534
sg379
S'0.1357722'
p535
sg380
S'0.3983948'
p536
sg381
S'0.2351013'
p537
sg382
S'0.1223010'
p538
sg383
S'0.7928387'
p539
sg384
S'0.0000000'
p540
sg385
S'0.7674369'
p541
sg386
S'0.0362879'
p542
ssg427
g303
sg428
g429
sg16
S'8'
p543
sg431
g157
sba(iDataStore
Experiment
p544
(dp545
g415
(dp546
g376
S'0.6154742'
p547
sg378
S'0.3397100'
p548
sg379
S'0.1241278'
p549
sg380
S'0.3636434'
p550
sg381
S'0.4215866'
p551
sg382
S'0.1399857'
p552
sg383
S'0.7939821'
p553
sg384
S'0.7247379'
p554
sg385
S'0.6776090'
p555
sg386
S'0.0000000'
p556
ssg427
g303
sg428
g429
sg16
S'9'
p557
sg431
g157
sbasg427
g303
sS'timeseries_num'
p558
Nsg400
g401
sS'input_files'
p559
(lp560
S'insilico_size10_1_knockouts.tsv'
p561
asbsg323
S'/Users/jesse/Workspace/School/MastersThesis/Program/output//Convex-Opt-dream410-MCZ-ConvOpt-PositivePrior-Medium--2012-02-02_23.54.50//ConvOpt_T-0.08//log/'
p562
sb.